---
triple:          'arm64-apple-darwin'
binary-path:     '/Users/danildenha/Projects/github/TSP/Driver'
relocations:
  - { offsetInCU: 0x5C, offset: 0x5C, size: 0x8, addend: 0x0, symName: __ZNSt3__1L19piecewise_constructE, symObjAddr: 0xDA8E, symBinAddr: 0x10000F57E, symSize: 0x0 }
  - { offsetInCU: 0xFBDF, offset: 0xFBDF, size: 0x8, addend: 0x0, symName: __ZNSt3__124__put_character_sequenceB8ue170006IcNS_11char_traitsIcEEEERNS_13basic_ostreamIT_T0_EES7_PKS4_m, symObjAddr: 0xCD60, symBinAddr: 0x10000E454, symSize: 0x1EC }
  - { offsetInCU: 0x10D6F, offset: 0x10D6F, size: 0x8, addend: 0x0, symName: __ZNSt3__1lsB8ue170006INS_11char_traitsIcEEEERNS_13basic_ostreamIcT_EES6_PKc, symObjAddr: 0x2FC, symBinAddr: 0x1000019F0, symSize: 0x48 }
  - { offsetInCU: 0x10DB5, offset: 0x10DB5, size: 0x8, addend: 0x0, symName: __ZNSt3__14endlB8ue170006IcNS_11char_traitsIcEEEERNS_13basic_ostreamIT_T0_EES7_, symObjAddr: 0x370, symBinAddr: 0x100001A64, symSize: 0x58 }
  - { offsetInCU: 0x10DF5, offset: 0x10DF5, size: 0x8, addend: 0x0, symName: __ZNSt3__17getlineB8ue170006IcNS_11char_traitsIcEENS_9allocatorIcEEEERNS_13basic_istreamIT_T0_EES9_RNS_12basic_stringIS6_S7_T1_EE, symObjAddr: 0xD48, symBinAddr: 0x10000243C, symSize: 0x5C }
  - { offsetInCU: 0x111C9, offset: 0x111C9, size: 0x8, addend: 0x0, symName: __ZNSt3__1rsB8ue170006IcNS_11char_traitsIcEENS_9allocatorIcEEEERNS_13basic_istreamIT_T0_EES9_RNS_12basic_stringIS6_S7_T1_EE, symObjAddr: 0xEF8, symBinAddr: 0x1000025EC, symSize: 0x318 }
  - { offsetInCU: 0x112A3, offset: 0x112A3, size: 0x8, addend: 0x0, symName: __ZNSt3__1neB8ue170006ERKNS_15__list_iteratorIN5Graph4EdgeEPvEES6_, symObjAddr: 0x1824, symBinAddr: 0x100002F18, symSize: 0x34 }
  - { offsetInCU: 0x11313, offset: 0x11313, size: 0x8, addend: 0x0, symName: __ZNSt3__17getlineB8ue170006IcNS_11char_traitsIcEENS_9allocatorIcEEEERNS_13basic_istreamIT_T0_EES9_RNS_12basic_stringIS6_S7_T1_EES6_, symObjAddr: 0x2028, symBinAddr: 0x10000371C, symSize: 0x238 }
  - { offsetInCU: 0x11606, offset: 0x11606, size: 0x8, addend: 0x0, symName: __ZNSt3__19use_facetB8ue170006INS_5ctypeIcEEEERKT_RKNS_6localeE, symObjAddr: 0x2964, symBinAddr: 0x100004058, symSize: 0x2C }
  - { offsetInCU: 0x11C1C, offset: 0x11C1C, size: 0x8, addend: 0x0, symName: __ZNSt3__116forward_as_tupleB8ue170006IJRKNS_12basic_stringIcNS_11char_traitsIcEENS_9allocatorIcEEEEEEENS_5tupleIJDpOT_EEESC_, symObjAddr: 0x310C, symBinAddr: 0x100004800, symSize: 0x2C }
  - { offsetInCU: 0x11C55, offset: 0x11C55, size: 0x8, addend: 0x0, symName: __ZNSt3__116forward_as_tupleB8ue170006IJEEENS_5tupleIJDpOT_EEES4_, symObjAddr: 0x3138, symBinAddr: 0x10000482C, symSize: 0x4 }
  - { offsetInCU: 0x11C79, offset: 0x11C79, size: 0x8, addend: 0x0, symName: __ZNSt3__1ltB8ue170006IcNS_11char_traitsIcEENS_9allocatorIcEEEEbRKNS_12basic_stringIT_T0_T1_EESB_, symObjAddr: 0x37E4, symBinAddr: 0x100004ED8, symSize: 0x38 }
  - { offsetInCU: 0x11CD1, offset: 0x11CD1, size: 0x8, addend: 0x0, symName: __ZNSt3__13minB8ue170006ImEERKT_S3_S3_, symObjAddr: 0x3A70, symBinAddr: 0x100005164, symSize: 0x2C }
  - { offsetInCU: 0x11D14, offset: 0x11D14, size: 0x8, addend: 0x0, symName: __ZNSt3__112__to_addressB8ue170006IKcEEPT_S3_, symObjAddr: 0x3A9C, symBinAddr: 0x100005190, symSize: 0x14 }
  - { offsetInCU: 0x11D7C, offset: 0x11D7C, size: 0x8, addend: 0x0, symName: __ZNSt3__13minB8ue170006ImNS_6__lessIvvEEEERKT_S5_S5_T0_, symObjAddr: 0x3B68, symBinAddr: 0x10000525C, symSize: 0x54 }
  - { offsetInCU: 0x11E39, offset: 0x11E39, size: 0x8, addend: 0x0, symName: __ZNSt3__117__libcpp_allocateB8ue170006Emm, symObjAddr: 0x3ECC, symBinAddr: 0x1000055C0, symSize: 0x28 }
  - { offsetInCU: 0x11E76, offset: 0x11E76, size: 0x8, addend: 0x0, symName: __ZNSt3__121__libcpp_operator_newB8ue170006IJmEEEPvDpT_, symObjAddr: 0x3F08, symBinAddr: 0x1000055FC, symSize: 0x24 }
  - { offsetInCU: 0x11EBA, offset: 0x11EBA, size: 0x8, addend: 0x0, symName: __ZNSt3__13getB8ue170006ILm0EJRKNS_12basic_stringIcNS_11char_traitsIcEENS_9allocatorIcEEEEEEERNS_13tuple_elementIXT_ENS_5tupleIJDpT0_EEEE4typeERSD_, symObjAddr: 0x417C, symBinAddr: 0x100005870, symSize: 0x24 }
  - { offsetInCU: 0x11EFD, offset: 0x11EFD, size: 0x8, addend: 0x0, symName: __ZNSt3__127__tree_balance_after_insertB8ue170006IPNS_16__tree_node_baseIPvEEEEvT_S5_, symObjAddr: 0x422C, symBinAddr: 0x100005920, symSize: 0x32C }
  - { offsetInCU: 0x11F79, offset: 0x11F79, size: 0x8, addend: 0x0, symName: __ZNSt3__120__tree_is_left_childB8ue170006IPNS_16__tree_node_baseIPvEEEEbT_, symObjAddr: 0x4598, symBinAddr: 0x100005C8C, symSize: 0x2C }
  - { offsetInCU: 0x11FAE, offset: 0x11FAE, size: 0x8, addend: 0x0, symName: __ZNSt3__118__tree_left_rotateB8ue170006IPNS_16__tree_node_baseIPvEEEEvT_, symObjAddr: 0x45C4, symBinAddr: 0x100005CB8, symSize: 0xD8 }
  - { offsetInCU: 0x11FF0, offset: 0x11FF0, size: 0x8, addend: 0x0, symName: __ZNSt3__119__tree_right_rotateB8ue170006IPNS_16__tree_node_baseIPvEEEEvT_, symObjAddr: 0x469C, symBinAddr: 0x100005D90, symSize: 0xCC }
  - { offsetInCU: 0x12032, offset: 0x12032, size: 0x8, addend: 0x0, symName: __ZNSt3__119__libcpp_deallocateB8ue170006EPvmm, symObjAddr: 0x4A2C, symBinAddr: 0x100006120, symSize: 0x30 }
  - { offsetInCU: 0x1207A, offset: 0x1207A, size: 0x8, addend: 0x0, symName: __ZNSt3__127__do_deallocate_handle_sizeB8ue170006IJEEEvPvmDpT_, symObjAddr: 0x4A5C, symBinAddr: 0x100006150, symSize: 0x28 }
  - { offsetInCU: 0x120B8, offset: 0x120B8, size: 0x8, addend: 0x0, symName: __ZNSt3__124__libcpp_operator_deleteB8ue170006IJPvEEEvDpT_, symObjAddr: 0x4A84, symBinAddr: 0x100006178, symSize: 0x24 }
  - { offsetInCU: 0x12144, offset: 0x12144, size: 0x8, addend: 0x0, symName: __ZNSt3__112__to_addressB8ue170006INS_12basic_stringIcNS_11char_traitsIcEENS_9allocatorIcEEEEEEPT_S8_, symObjAddr: 0x4E7C, symBinAddr: 0x100006570, symSize: 0x14 }
  - { offsetInCU: 0x12179, offset: 0x12179, size: 0x8, addend: 0x0, symName: __ZNSt3__13maxB8ue170006ImEERKT_S3_S3_, symObjAddr: 0x52A8, symBinAddr: 0x10000699C, symSize: 0x2C }
  - { offsetInCU: 0x121BC, offset: 0x121BC, size: 0x8, addend: 0x0, symName: __ZNSt3__120__throw_length_errorB8ue170006EPKc, symObjAddr: 0x5370, symBinAddr: 0x100006A64, symSize: 0x64 }
  - { offsetInCU: 0x121E6, offset: 0x121E6, size: 0x8, addend: 0x0, symName: __ZNSt3__13maxB8ue170006ImNS_6__lessIvvEEEERKT_S5_S5_T0_, symObjAddr: 0x54B4, symBinAddr: 0x100006BA8, symSize: 0x54 }
  - { offsetInCU: 0x12240, offset: 0x12240, size: 0x8, addend: 0x0, symName: __ZNSt3__119__allocate_at_leastB8ue170006INS_9allocatorINS_12basic_stringIcNS_11char_traitsIcEENS1_IcEEEEEEEENS_19__allocation_resultINS_16allocator_traitsIT_E7pointerEEERSA_m, symObjAddr: 0x5624, symBinAddr: 0x100006D18, symSize: 0x40 }
  - { offsetInCU: 0x12283, offset: 0x12283, size: 0x8, addend: 0x0, symName: __ZNSt3__142__uninitialized_allocator_move_if_noexceptB8ue170006INS_9allocatorINS_12basic_stringIcNS_11char_traitsIcEENS1_IcEEEEEENS_16reverse_iteratorIPS6_EESA_SA_EET2_RT_T0_T1_SB_, symObjAddr: 0x58B0, symBinAddr: 0x100006FA4, symSize: 0x12C }
  - { offsetInCU: 0x12323, offset: 0x12323, size: 0x8, addend: 0x0, symName: __ZNSt3__14swapB8ue170006IPNS_12basic_stringIcNS_11char_traitsIcEENS_9allocatorIcEEEEEENS_9enable_ifIXaasr21is_move_constructibleIT_EE5valuesr18is_move_assignableIS9_EE5valueEvE4typeERS9_SC_, symObjAddr: 0x5A28, symBinAddr: 0x10000711C, symSize: 0x3C }
  - { offsetInCU: 0x12374, offset: 0x12374, size: 0x8, addend: 0x0, symName: __ZNSt3__122__make_exception_guardB8ue170006INS_29_AllocatorDestroyRangeReverseINS_9allocatorINS_12basic_stringIcNS_11char_traitsIcEENS2_IcEEEEEENS_16reverse_iteratorIPS7_EEEEEENS_28__exception_guard_exceptionsIT_EESE_, symObjAddr: 0x5B74, symBinAddr: 0x100007268, symSize: 0x4C }
  - { offsetInCU: 0x123AA, offset: 0x123AA, size: 0x8, addend: 0x0, symName: __ZNSt3__1neB8ue170006IPNS_12basic_stringIcNS_11char_traitsIcEENS_9allocatorIcEEEES7_EEbRKNS_16reverse_iteratorIT_EERKNS8_IT0_EE, symObjAddr: 0x5C04, symBinAddr: 0x1000072F8, symSize: 0x48 }
  - { offsetInCU: 0x123F6, offset: 0x123F6, size: 0x8, addend: 0x0, symName: __ZNSt3__112__to_addressB8ue170006INS_16reverse_iteratorIPNS_12basic_stringIcNS_11char_traitsIcEENS_9allocatorIcEEEEEEvEEu7__decayIDTclsr19__to_address_helperIT_EE6__callclsr3stdE7declvalIRKSA_EEEEESC_, symObjAddr: 0x5C80, symBinAddr: 0x100007374, symSize: 0x24 }
  - { offsetInCU: 0x12455, offset: 0x12455, size: 0x8, addend: 0x0, symName: __ZNSt3__119__allocator_destroyB8ue170006INS_9allocatorINS_12basic_stringIcNS_11char_traitsIcEENS1_IcEEEEEENS_16reverse_iteratorINS8_IPS6_EEEESB_EEvRT_T0_T1_, symObjAddr: 0x5FDC, symBinAddr: 0x1000076D0, symSize: 0x70 }
  - { offsetInCU: 0x124BA, offset: 0x124BA, size: 0x8, addend: 0x0, symName: __ZNSt3__1neB8ue170006INS_16reverse_iteratorIPNS_12basic_stringIcNS_11char_traitsIcEENS_9allocatorIcEEEEEES9_EEbRKNS1_IT_EERKNS1_IT0_EE, symObjAddr: 0x6088, symBinAddr: 0x10000777C, symSize: 0x60 }
  - { offsetInCU: 0x12506, offset: 0x12506, size: 0x8, addend: 0x0, symName: __ZNSt3__112__to_addressB8ue170006INS_16reverse_iteratorINS1_IPNS_12basic_stringIcNS_11char_traitsIcEENS_9allocatorIcEEEEEEEEvEEu7__decayIDTclsr19__to_address_helperIT_EE6__callclsr3stdE7declvalIRKSB_EEEEESD_, symObjAddr: 0x6114, symBinAddr: 0x100007808, symSize: 0x24 }
  - { offsetInCU: 0x125B6, offset: 0x125B6, size: 0x8, addend: 0x0, symName: __ZNSt3__112__to_addressB8ue170006INS_4listIN5Graph4EdgeENS_9allocatorIS3_EEEEEEPT_S8_, symObjAddr: 0x7318, symBinAddr: 0x100008A0C, symSize: 0x14 }
  - { offsetInCU: 0x125EB, offset: 0x125EB, size: 0x8, addend: 0x0, symName: __ZNSt3__1neB8ue170006ERKNS_21__list_const_iteratorIN5Graph4EdgeEPvEES6_, symObjAddr: 0x75C8, symBinAddr: 0x100008CBC, symSize: 0x34 }
  - { offsetInCU: 0x12628, offset: 0x12628, size: 0x8, addend: 0x0, symName: __ZNSt3__1eqB8ue170006ERKNS_21__list_const_iteratorIN5Graph4EdgeEPvEES6_, symObjAddr: 0x78E8, symBinAddr: 0x100008FDC, symSize: 0x30 }
  - { offsetInCU: 0x12665, offset: 0x12665, size: 0x8, addend: 0x0, symName: __ZNSt3__119__allocate_at_leastB8ue170006INS_9allocatorINS_4listIN5Graph4EdgeENS1_IS4_EEEEEEEENS_19__allocation_resultINS_16allocator_traitsIT_E7pointerEEERSA_m, symObjAddr: 0x7ED4, symBinAddr: 0x1000095C8, symSize: 0x40 }
  - { offsetInCU: 0x126A8, offset: 0x126A8, size: 0x8, addend: 0x0, symName: __ZNSt3__142__uninitialized_allocator_move_if_noexceptB8ue170006INS_9allocatorINS_4listIN5Graph4EdgeENS1_IS4_EEEEEENS_16reverse_iteratorIPS6_EESA_SA_EET2_RT_T0_T1_SB_, symObjAddr: 0x8160, symBinAddr: 0x100009854, symSize: 0x12C }
  - { offsetInCU: 0x12748, offset: 0x12748, size: 0x8, addend: 0x0, symName: __ZNSt3__14swapB8ue170006IPNS_4listIN5Graph4EdgeENS_9allocatorIS3_EEEEEENS_9enable_ifIXaasr21is_move_constructibleIT_EE5valuesr18is_move_assignableIS9_EE5valueEvE4typeERS9_SC_, symObjAddr: 0x82D8, symBinAddr: 0x1000099CC, symSize: 0x3C }
  - { offsetInCU: 0x12799, offset: 0x12799, size: 0x8, addend: 0x0, symName: __ZNSt3__122__make_exception_guardB8ue170006INS_29_AllocatorDestroyRangeReverseINS_9allocatorINS_4listIN5Graph4EdgeENS2_IS5_EEEEEENS_16reverse_iteratorIPS7_EEEEEENS_28__exception_guard_exceptionsIT_EESE_, symObjAddr: 0x8424, symBinAddr: 0x100009B18, symSize: 0x4C }
  - { offsetInCU: 0x127CF, offset: 0x127CF, size: 0x8, addend: 0x0, symName: __ZNSt3__1neB8ue170006IPNS_4listIN5Graph4EdgeENS_9allocatorIS3_EEEES7_EEbRKNS_16reverse_iteratorIT_EERKNS8_IT0_EE, symObjAddr: 0x84B4, symBinAddr: 0x100009BA8, symSize: 0x48 }
  - { offsetInCU: 0x1281B, offset: 0x1281B, size: 0x8, addend: 0x0, symName: __ZNSt3__112__to_addressB8ue170006INS_16reverse_iteratorIPNS_4listIN5Graph4EdgeENS_9allocatorIS4_EEEEEEvEEu7__decayIDTclsr19__to_address_helperIT_EE6__callclsr3stdE7declvalIRKSA_EEEEESC_, symObjAddr: 0x8530, symBinAddr: 0x100009C24, symSize: 0x24 }
  - { offsetInCU: 0x1287A, offset: 0x1287A, size: 0x8, addend: 0x0, symName: __ZNSt3__119__allocator_destroyB8ue170006INS_9allocatorINS_4listIN5Graph4EdgeENS1_IS4_EEEEEENS_16reverse_iteratorINS8_IPS6_EEEESB_EEvRT_T0_T1_, symObjAddr: 0x8A30, symBinAddr: 0x10000A124, symSize: 0x70 }
  - { offsetInCU: 0x128DF, offset: 0x128DF, size: 0x8, addend: 0x0, symName: __ZNSt3__1neB8ue170006INS_16reverse_iteratorIPNS_4listIN5Graph4EdgeENS_9allocatorIS4_EEEEEES9_EEbRKNS1_IT_EERKNS1_IT0_EE, symObjAddr: 0x8ADC, symBinAddr: 0x10000A1D0, symSize: 0x60 }
  - { offsetInCU: 0x1292B, offset: 0x1292B, size: 0x8, addend: 0x0, symName: __ZNSt3__112__to_addressB8ue170006INS_16reverse_iteratorINS1_IPNS_4listIN5Graph4EdgeENS_9allocatorIS4_EEEEEEEEvEEu7__decayIDTclsr19__to_address_helperIT_EE6__callclsr3stdE7declvalIRKSB_EEEEESD_, symObjAddr: 0x8B68, symBinAddr: 0x10000A25C, symSize: 0x24 }
  - { offsetInCU: 0x1298A, offset: 0x1298A, size: 0x8, addend: 0x0, symName: __ZNSt3__112__to_addressB8ue170006IiEEPT_S2_, symObjAddr: 0x92F8, symBinAddr: 0x10000A9EC, symSize: 0x14 }
  - { offsetInCU: 0x129BF, offset: 0x129BF, size: 0x8, addend: 0x0, symName: __ZNSt3__112__to_addressB8ue170006INS_6vectorIiNS_9allocatorIiEEEEEEPT_S6_, symObjAddr: 0x9B84, symBinAddr: 0x10000B278, symSize: 0x14 }
  - { offsetInCU: 0x129F4, offset: 0x129F4, size: 0x8, addend: 0x0, symName: __ZNSt3__119__allocate_at_leastB8ue170006INS_9allocatorINS_6vectorIiNS1_IiEEEEEEEENS_19__allocation_resultINS_16allocator_traitsIT_E7pointerEEERS8_m, symObjAddr: 0x9F64, symBinAddr: 0x10000B658, symSize: 0x40 }
  - { offsetInCU: 0x12A37, offset: 0x12A37, size: 0x8, addend: 0x0, symName: __ZNSt3__142__uninitialized_allocator_move_if_noexceptB8ue170006INS_9allocatorINS_6vectorIiNS1_IiEEEEEENS_16reverse_iteratorIPS4_EES8_S8_EET2_RT_T0_T1_S9_, symObjAddr: 0xA2C4, symBinAddr: 0x10000B9B8, symSize: 0x12C }
  - { offsetInCU: 0x12AD7, offset: 0x12AD7, size: 0x8, addend: 0x0, symName: __ZNSt3__14swapB8ue170006IPNS_6vectorIiNS_9allocatorIiEEEEEENS_9enable_ifIXaasr21is_move_constructibleIT_EE5valuesr18is_move_assignableIS7_EE5valueEvE4typeERS7_SA_, symObjAddr: 0xA43C, symBinAddr: 0x10000BB30, symSize: 0x3C }
  - { offsetInCU: 0x12B28, offset: 0x12B28, size: 0x8, addend: 0x0, symName: __ZNSt3__122__make_exception_guardB8ue170006INS_29_AllocatorDestroyRangeReverseINS_9allocatorINS_6vectorIiNS2_IiEEEEEENS_16reverse_iteratorIPS5_EEEEEENS_28__exception_guard_exceptionsIT_EESC_, symObjAddr: 0xA588, symBinAddr: 0x10000BC7C, symSize: 0x4C }
  - { offsetInCU: 0x12B5E, offset: 0x12B5E, size: 0x8, addend: 0x0, symName: __ZNSt3__1neB8ue170006IPNS_6vectorIiNS_9allocatorIiEEEES5_EEbRKNS_16reverse_iteratorIT_EERKNS6_IT0_EE, symObjAddr: 0xA618, symBinAddr: 0x10000BD0C, symSize: 0x48 }
  - { offsetInCU: 0x12BAA, offset: 0x12BAA, size: 0x8, addend: 0x0, symName: __ZNSt3__112__to_addressB8ue170006INS_16reverse_iteratorIPNS_6vectorIiNS_9allocatorIiEEEEEEvEEu7__decayIDTclsr19__to_address_helperIT_EE6__callclsr3stdE7declvalIRKS8_EEEEESA_, symObjAddr: 0xA694, symBinAddr: 0x10000BD88, symSize: 0x24 }
  - { offsetInCU: 0x12C09, offset: 0x12C09, size: 0x8, addend: 0x0, symName: __ZNSt3__119__allocator_destroyB8ue170006INS_9allocatorINS_6vectorIiNS1_IiEEEEEENS_16reverse_iteratorINS6_IPS4_EEEES9_EEvRT_T0_T1_, symObjAddr: 0xAB64, symBinAddr: 0x10000C258, symSize: 0x70 }
  - { offsetInCU: 0x12C6E, offset: 0x12C6E, size: 0x8, addend: 0x0, symName: __ZNSt3__1neB8ue170006INS_16reverse_iteratorIPNS_6vectorIiNS_9allocatorIiEEEEEES7_EEbRKNS1_IT_EERKNS1_IT0_EE, symObjAddr: 0xAC10, symBinAddr: 0x10000C304, symSize: 0x60 }
  - { offsetInCU: 0x12CBA, offset: 0x12CBA, size: 0x8, addend: 0x0, symName: __ZNSt3__112__to_addressB8ue170006INS_16reverse_iteratorINS1_IPNS_6vectorIiNS_9allocatorIiEEEEEEEEvEEu7__decayIDTclsr19__to_address_helperIT_EE6__callclsr3stdE7declvalIRKS9_EEEEESB_, symObjAddr: 0xAC9C, symBinAddr: 0x10000C390, symSize: 0x24 }
  - { offsetInCU: 0x12D19, offset: 0x12D19, size: 0x8, addend: 0x0, symName: __ZNSt3__120__throw_out_of_rangeB8ue170006EPKc, symObjAddr: 0xB21C, symBinAddr: 0x10000C910, symSize: 0x64 }
  - { offsetInCU: 0x12D43, offset: 0x12D43, size: 0x8, addend: 0x0, symName: __ZNSt3__119__allocate_at_leastB8ue170006INS_9allocatorIiEEEENS_19__allocation_resultINS_16allocator_traitsIT_E7pointerEEERS5_m, symObjAddr: 0xBB3C, symBinAddr: 0x10000D230, symSize: 0x40 }
  - { offsetInCU: 0x12D86, offset: 0x12D86, size: 0x8, addend: 0x0, symName: __ZNSt3__142__uninitialized_allocator_move_if_noexceptB8ue170006INS_9allocatorIiEENS_16reverse_iteratorIPiEES5_ivEET1_RT_T0_S9_S6_, symObjAddr: 0xBDBC, symBinAddr: 0x10000D4B0, symSize: 0x78 }
  - { offsetInCU: 0x12E03, offset: 0x12E03, size: 0x8, addend: 0x0, symName: __ZNSt3__14swapB8ue170006IPiEENS_9enable_ifIXaasr21is_move_constructibleIT_EE5valuesr18is_move_assignableIS3_EE5valueEvE4typeERS3_S6_, symObjAddr: 0xBE80, symBinAddr: 0x10000D574, symSize: 0x3C }
  - { offsetInCU: 0x12E54, offset: 0x12E54, size: 0x8, addend: 0x0, symName: __ZNSt3__14moveB8ue170006INS_16reverse_iteratorIPiEES3_EET0_T_S5_S4_, symObjAddr: 0xBF68, symBinAddr: 0x10000D65C, symSize: 0x78 }
  - { offsetInCU: 0x12EAE, offset: 0x12EAE, size: 0x8, addend: 0x0, symName: __ZNSt3__16__moveB8ue170006INS_17_ClassicAlgPolicyENS_16reverse_iteratorIPiEES4_S4_EENS_4pairIT0_T2_EES6_T1_S7_, symObjAddr: 0xBFE0, symBinAddr: 0x10000D6D4, symSize: 0x64 }
  - { offsetInCU: 0x12F1A, offset: 0x12F1A, size: 0x8, addend: 0x0, symName: __ZNSt3__123__dispatch_copy_or_moveB8ue170006INS_17_ClassicAlgPolicyENS_11__move_loopIS1_EENS_14__move_trivialENS_16reverse_iteratorIPiEES7_S7_EENS_4pairIT2_T4_EES9_T3_SA_, symObjAddr: 0xC044, symBinAddr: 0x10000D738, symSize: 0x64 }
  - { offsetInCU: 0x12F98, offset: 0x12F98, size: 0x8, addend: 0x0, symName: __ZNSt3__121__unwrap_and_dispatchB8ue170006INS_10__overloadINS_11__move_loopINS_17_ClassicAlgPolicyEEENS_14__move_trivialEEENS_16reverse_iteratorIPiEES9_S9_Li0EEENS_4pairIT0_T2_EESB_T1_SC_, symObjAddr: 0xC0A8, symBinAddr: 0x10000D79C, symSize: 0x12C }
  - { offsetInCU: 0x13028, offset: 0x13028, size: 0x8, addend: 0x0, symName: __ZNSt3__114__unwrap_rangeB8ue170006INS_16reverse_iteratorIPiEES3_EENS_4pairIT0_S5_EET_S7_, symObjAddr: 0xC1D4, symBinAddr: 0x10000D8C8, symSize: 0x84 }
  - { offsetInCU: 0x131A3, offset: 0x131A3, size: 0x8, addend: 0x0, symName: __ZNSt3__113__unwrap_iterB8ue170006INS_16reverse_iteratorIPiEENS_18__unwrap_iter_implIS3_Lb0EEELi0EEEDTclsrT0_8__unwrapclsr3stdE7declvalIT_EEEES7_, symObjAddr: 0xC2F8, symBinAddr: 0x10000D9EC, symSize: 0x44 }
  - { offsetInCU: 0x131E7, offset: 0x131E7, size: 0x8, addend: 0x0, symName: __ZNSt3__19make_pairB8ue170006INS_16reverse_iteratorIPiEES3_EENS_4pairINS_18__unwrap_ref_decayIT_E4typeENS5_IT0_E4typeEEEOS6_OS9_, symObjAddr: 0xC33C, symBinAddr: 0x10000DA30, symSize: 0x38 }
  - { offsetInCU: 0x13236, offset: 0x13236, size: 0x8, addend: 0x0, symName: __ZNSt3__114__rewrap_rangeB8ue170006INS_16reverse_iteratorIPiEES3_EET_S4_T0_, symObjAddr: 0xC374, symBinAddr: 0x10000DA68, symSize: 0x5C }
  - { offsetInCU: 0x13282, offset: 0x13282, size: 0x8, addend: 0x0, symName: __ZNSt3__113__rewrap_iterB8ue170006INS_16reverse_iteratorIPiEES3_NS_18__unwrap_iter_implIS3_Lb0EEEEET_S6_T0_, symObjAddr: 0xC3D0, symBinAddr: 0x10000DAC4, symSize: 0x74 }
  - { offsetInCU: 0x132D7, offset: 0x132D7, size: 0x8, addend: 0x0, symName: __ZNSt3__1neB8ue170006IPiS1_EEbRKNS_16reverse_iteratorIT_EERKNS2_IT0_EE, symObjAddr: 0xC444, symBinAddr: 0x10000DB38, symSize: 0x48 }
  - { offsetInCU: 0x133D5, offset: 0x133D5, size: 0x8, addend: 0x0, symName: __ZNSt3__1eqB8ue170006ERKNS_15__list_iteratorIN5Graph4EdgeEPvEES6_, symObjAddr: 0xC928, symBinAddr: 0x10000E01C, symSize: 0x30 }
  - { offsetInCU: 0x13445, offset: 0x13445, size: 0x8, addend: 0x0, symName: __ZNSt3__116__pad_and_outputB8ue170006IcNS_11char_traitsIcEEEENS_19ostreambuf_iteratorIT_T0_EES6_PKS4_S8_S8_RNS_8ios_baseES4_, symObjAddr: 0xCF9C, symBinAddr: 0x10000E690, symSize: 0x240 }
  - { offsetInCU: 0x13514, offset: 0x13514, size: 0x8, addend: 0x0, symName: __ZNSt3__118__constexpr_strlenB8ue170006EPKc, symObjAddr: 0xD3C8, symBinAddr: 0x10000EABC, symSize: 0x24 }
  - { offsetInCU: 0x13A19, offset: 0x13A19, size: 0x8, addend: 0x0, symName: __ZSt28__throw_bad_array_new_lengthB8ue170006v, symObjAddr: 0x3E98, symBinAddr: 0x10000558C, symSize: 0x34 }
  - { offsetInCU: 0x143C2, offset: 0x143C2, size: 0x8, addend: 0x0, symName: __ZNSt3__16vectorINS_12basic_stringIcNS_11char_traitsIcEENS_9allocatorIcEEEENS4_IS6_EEE26__swap_out_circular_bufferERNS_14__split_bufferIS6_RS7_EE, symObjAddr: 0x50B0, symBinAddr: 0x1000067A4, symSize: 0x110 }
  - { offsetInCU: 0x15042, offset: 0x15042, size: 0x8, addend: 0x0, symName: __ZNSt3__16vectorINS_4listIN5Graph4EdgeENS_9allocatorIS3_EEEENS4_IS6_EEE26__swap_out_circular_bufferERNS_14__split_bufferIS6_RS7_EE, symObjAddr: 0x7AC4, symBinAddr: 0x1000091B8, symSize: 0x110 }
  - { offsetInCU: 0x150DF, offset: 0x150DF, size: 0x8, addend: 0x0, symName: __ZNSt3__16vectorINS0_IiNS_9allocatorIiEEEENS1_IS3_EEE26__swap_out_circular_bufferERNS_14__split_bufferIS3_RS4_EE, symObjAddr: 0x99A8, symBinAddr: 0x10000B09C, symSize: 0x110 }
  - { offsetInCU: 0x15187, offset: 0x15187, size: 0x8, addend: 0x0, symName: __ZNSt3__16vectorIiNS_9allocatorIiEEE26__swap_out_circular_bufferERNS_14__split_bufferIiRS2_EE, symObjAddr: 0xB6C8, symBinAddr: 0x10000CDBC, symSize: 0x110 }
  - { offsetInCU: 0x17312, offset: 0x17312, size: 0x8, addend: 0x0, symName: _main, symObjAddr: 0x0, symBinAddr: 0x1000016F4, symSize: 0x164 }
  - { offsetInCU: 0x1734A, offset: 0x1734A, size: 0x8, addend: 0x0, symName: __ZNSt3__114basic_ifstreamIcNS_11char_traitsIcEEEC1EPKcj, symObjAddr: 0x164, symBinAddr: 0x100001858, symSize: 0x16C }
  - { offsetInCU: 0x17394, offset: 0x17394, size: 0x8, addend: 0x0, symName: __ZNKSt3__114basic_ifstreamIcNS_11char_traitsIcEEE7is_openEv, symObjAddr: 0x2D0, symBinAddr: 0x1000019C4, symSize: 0x2C }
  - { offsetInCU: 0x173BC, offset: 0x173BC, size: 0x8, addend: 0x0, symName: __ZNSt3__113basic_ostreamIcNS_11char_traitsIcEEElsB8ue170006EPFRS3_S4_E, symObjAddr: 0x344, symBinAddr: 0x100001A38, symSize: 0x2C }
  - { offsetInCU: 0x173F0, offset: 0x173F0, size: 0x8, addend: 0x0, symName: __ZN5GraphC1Ev, symObjAddr: 0x3C8, symBinAddr: 0x100001ABC, symSize: 0x2C }
  - { offsetInCU: 0x1741A, offset: 0x1741A, size: 0x8, addend: 0x0, symName: __ZN5Graph4readERNSt3__114basic_ifstreamIcNS0_11char_traitsIcEEEE, symObjAddr: 0x3F4, symBinAddr: 0x100001AE8, symSize: 0x54C }
  - { offsetInCU: 0x175B9, offset: 0x175B9, size: 0x8, addend: 0x0, symName: __ZNSt3__114basic_ifstreamIcNS_11char_traitsIcEEED1Ev, symObjAddr: 0x940, symBinAddr: 0x100002034, symSize: 0x40 }
  - { offsetInCU: 0x175E6, offset: 0x175E6, size: 0x8, addend: 0x0, symName: __ZN5GraphC2Ev, symObjAddr: 0x980, symBinAddr: 0x100002074, symSize: 0x40 }
  - { offsetInCU: 0x17610, offset: 0x17610, size: 0x8, addend: 0x0, symName: __ZNSt3__16vectorINS_12basic_stringIcNS_11char_traitsIcEENS_9allocatorIcEEEENS4_IS6_EEEC1B8ue170006Ev, symObjAddr: 0x9C0, symBinAddr: 0x1000020B4, symSize: 0x2C }
  - { offsetInCU: 0x1763A, offset: 0x1763A, size: 0x8, addend: 0x0, symName: __ZNSt3__16vectorINS0_IiNS_9allocatorIiEEEENS1_IS3_EEEC1B8ue170006Ev, symObjAddr: 0x9EC, symBinAddr: 0x1000020E0, symSize: 0x2C }
  - { offsetInCU: 0x17664, offset: 0x17664, size: 0x8, addend: 0x0, symName: __ZNSt3__16vectorINS_12basic_stringIcNS_11char_traitsIcEENS_9allocatorIcEEEENS4_IS6_EEEC2B8ue170006Ev, symObjAddr: 0xA18, symBinAddr: 0x10000210C, symSize: 0x4C }
  - { offsetInCU: 0x1769A, offset: 0x1769A, size: 0x8, addend: 0x0, symName: __ZNSt3__117__compressed_pairIPNS_12basic_stringIcNS_11char_traitsIcEENS_9allocatorIcEEEENS4_IS6_EEEC1B8ue170006IDnNS_18__default_init_tagEEEOT_OT0_, symObjAddr: 0xA64, symBinAddr: 0x100002158, symSize: 0x3C }
  - { offsetInCU: 0x176F2, offset: 0x176F2, size: 0x8, addend: 0x0, symName: __ZNSt3__117__compressed_pairIPNS_12basic_stringIcNS_11char_traitsIcEENS_9allocatorIcEEEENS4_IS6_EEEC2B8ue170006IDnNS_18__default_init_tagEEEOT_OT0_, symObjAddr: 0xAAC, symBinAddr: 0x1000021A0, symSize: 0x40 }
  - { offsetInCU: 0x1774A, offset: 0x1774A, size: 0x8, addend: 0x0, symName: __ZNSt3__122__compressed_pair_elemIPNS_12basic_stringIcNS_11char_traitsIcEENS_9allocatorIcEEEELi0ELb0EEC2B8ue170006IDnvEEOT_, symObjAddr: 0xAEC, symBinAddr: 0x1000021E0, symSize: 0x1C }
  - { offsetInCU: 0x1778C, offset: 0x1778C, size: 0x8, addend: 0x0, symName: __ZNSt3__122__compressed_pair_elemINS_9allocatorINS_12basic_stringIcNS_11char_traitsIcEENS1_IcEEEEEELi1ELb1EEC2B8ue170006ENS_18__default_init_tagE, symObjAddr: 0xB08, symBinAddr: 0x1000021FC, symSize: 0x2C }
  - { offsetInCU: 0x177C1, offset: 0x177C1, size: 0x8, addend: 0x0, symName: __ZNSt3__19allocatorINS_12basic_stringIcNS_11char_traitsIcEENS0_IcEEEEEC2B8ue170006Ev, symObjAddr: 0xB34, symBinAddr: 0x100002228, symSize: 0x2C }
  - { offsetInCU: 0x177EB, offset: 0x177EB, size: 0x8, addend: 0x0, symName: __ZNSt3__116__non_trivial_ifILb1ENS_9allocatorINS_12basic_stringIcNS_11char_traitsIcEENS1_IcEEEEEEEC2B8ue170006Ev, symObjAddr: 0xB60, symBinAddr: 0x100002254, symSize: 0x14 }
  - { offsetInCU: 0x17815, offset: 0x17815, size: 0x8, addend: 0x0, symName: __ZNSt3__16vectorINS0_IiNS_9allocatorIiEEEENS1_IS3_EEEC2B8ue170006Ev, symObjAddr: 0xB74, symBinAddr: 0x100002268, symSize: 0x4C }
  - { offsetInCU: 0x1783F, offset: 0x1783F, size: 0x8, addend: 0x0, symName: __ZNSt3__117__compressed_pairIPNS_6vectorIiNS_9allocatorIiEEEENS2_IS4_EEEC1B8ue170006IDnNS_18__default_init_tagEEEOT_OT0_, symObjAddr: 0xBC0, symBinAddr: 0x1000022B4, symSize: 0x3C }
  - { offsetInCU: 0x17897, offset: 0x17897, size: 0x8, addend: 0x0, symName: __ZNSt3__117__compressed_pairIPNS_6vectorIiNS_9allocatorIiEEEENS2_IS4_EEEC2B8ue170006IDnNS_18__default_init_tagEEEOT_OT0_, symObjAddr: 0xBFC, symBinAddr: 0x1000022F0, symSize: 0x40 }
  - { offsetInCU: 0x178EF, offset: 0x178EF, size: 0x8, addend: 0x0, symName: __ZNSt3__122__compressed_pair_elemIPNS_6vectorIiNS_9allocatorIiEEEELi0ELb0EEC2B8ue170006IDnvEEOT_, symObjAddr: 0xC3C, symBinAddr: 0x100002330, symSize: 0x1C }
  - { offsetInCU: 0x17931, offset: 0x17931, size: 0x8, addend: 0x0, symName: __ZNSt3__122__compressed_pair_elemINS_9allocatorINS_6vectorIiNS1_IiEEEEEELi1ELb1EEC2B8ue170006ENS_18__default_init_tagE, symObjAddr: 0xC58, symBinAddr: 0x10000234C, symSize: 0x2C }
  - { offsetInCU: 0x17966, offset: 0x17966, size: 0x8, addend: 0x0, symName: __ZNSt3__19allocatorINS_6vectorIiNS0_IiEEEEEC2B8ue170006Ev, symObjAddr: 0xC84, symBinAddr: 0x100002378, symSize: 0x2C }
  - { offsetInCU: 0x17990, offset: 0x17990, size: 0x8, addend: 0x0, symName: __ZNSt3__116__non_trivial_ifILb1ENS_9allocatorINS_6vectorIiNS1_IiEEEEEEEC2B8ue170006Ev, symObjAddr: 0xCB0, symBinAddr: 0x1000023A4, symSize: 0x14 }
  - { offsetInCU: 0x179BA, offset: 0x179BA, size: 0x8, addend: 0x0, symName: __ZNSt3__16vectorINS_4listIN5Graph4EdgeENS_9allocatorIS3_EEEENS4_IS6_EEEC1B8ue170006Ev, symObjAddr: 0xCC4, symBinAddr: 0x1000023B8, symSize: 0x2C }
  - { offsetInCU: 0x179E4, offset: 0x179E4, size: 0x8, addend: 0x0, symName: __ZNSt3__13mapINS_12basic_stringIcNS_11char_traitsIcEENS_9allocatorIcEEEEiNS_4lessIS6_EENS4_INS_4pairIKS6_iEEEEEC1B8ue170006Ev, symObjAddr: 0xCF0, symBinAddr: 0x1000023E4, symSize: 0x2C }
  - { offsetInCU: 0x17A0E, offset: 0x17A0E, size: 0x8, addend: 0x0, symName: __ZNSt3__112basic_stringIcNS_11char_traitsIcEENS_9allocatorIcEEEC1B8ue170006Ev, symObjAddr: 0xD1C, symBinAddr: 0x100002410, symSize: 0x2C }
  - { offsetInCU: 0x17A38, offset: 0x17A38, size: 0x8, addend: 0x0, symName: __ZNKSt3__19basic_iosIcNS_11char_traitsIcEEEcvbB8ue170006Ev, symObjAddr: 0xDA4, symBinAddr: 0x100002498, symSize: 0x2C }
  - { offsetInCU: 0x17AB4, offset: 0x17AB4, size: 0x8, addend: 0x0, symName: __ZNSt3__119basic_istringstreamIcNS_11char_traitsIcEENS_9allocatorIcEEEC1B8ue170006ERKNS_12basic_stringIcS2_S4_EEj, symObjAddr: 0xDD0, symBinAddr: 0x1000024C4, symSize: 0xFC }
  - { offsetInCU: 0x17AFC, offset: 0x17AFC, size: 0x8, addend: 0x0, symName: __ZNSt3__16vectorIiNS_9allocatorIiEEEC1B8ue170006Ev, symObjAddr: 0xECC, symBinAddr: 0x1000025C0, symSize: 0x2C }
  - { offsetInCU: 0x17B26, offset: 0x17B26, size: 0x8, addend: 0x0, symName: __ZNSt3__13mapINS_12basic_stringIcNS_11char_traitsIcEENS_9allocatorIcEEEEiNS_4lessIS6_EENS4_INS_4pairIKS6_iEEEEEixERSA_, symObjAddr: 0x1210, symBinAddr: 0x100002904, symSize: 0x80 }
  - { offsetInCU: 0x17B5D, offset: 0x17B5D, size: 0x8, addend: 0x0, symName: __ZNSt3__16vectorINS_12basic_stringIcNS_11char_traitsIcEENS_9allocatorIcEEEENS4_IS6_EEE9push_backB8ue170006ERKS6_, symObjAddr: 0x1290, symBinAddr: 0x100002984, symSize: 0x6C }
  - { offsetInCU: 0x17B94, offset: 0x17B94, size: 0x8, addend: 0x0, symName: __ZNSt3__14listIN5Graph4EdgeENS_9allocatorIS2_EEEC1B8ue170006Ev, symObjAddr: 0x12FC, symBinAddr: 0x1000029F0, symSize: 0x2C }
  - { offsetInCU: 0x17BBE, offset: 0x17BBE, size: 0x8, addend: 0x0, symName: __ZNSt3__14listIN5Graph4EdgeENS_9allocatorIS2_EEE5clearB8ue170006Ev, symObjAddr: 0x1328, symBinAddr: 0x100002A1C, symSize: 0x24 }
  - { offsetInCU: 0x17BE4, offset: 0x17BE4, size: 0x8, addend: 0x0, symName: __ZNSt3__14listIN5Graph4EdgeENS_9allocatorIS2_EEE9push_backEOS2_, symObjAddr: 0x134C, symBinAddr: 0x100002A40, symSize: 0xF4 }
  - { offsetInCU: 0x17C39, offset: 0x17C39, size: 0x8, addend: 0x0, symName: __ZN5Graph4EdgeC1Eji, symObjAddr: 0x1440, symBinAddr: 0x100002B34, symSize: 0x3C }
  - { offsetInCU: 0x17C7F, offset: 0x17C7F, size: 0x8, addend: 0x0, symName: __ZNSt3__16vectorINS_4listIN5Graph4EdgeENS_9allocatorIS3_EEEENS4_IS6_EEE9push_backB8ue170006ERKS6_, symObjAddr: 0x147C, symBinAddr: 0x100002B70, symSize: 0x6C }
  - { offsetInCU: 0x17CB6, offset: 0x17CB6, size: 0x8, addend: 0x0, symName: __ZNSt3__14listIN5Graph4EdgeENS_9allocatorIS2_EEED1Ev, symObjAddr: 0x14E8, symBinAddr: 0x100002BDC, symSize: 0x2C }
  - { offsetInCU: 0x17CE3, offset: 0x17CE3, size: 0x8, addend: 0x0, symName: __ZNSt3__16vectorIiNS_9allocatorIiEEED1B8ue170006Ev, symObjAddr: 0x1514, symBinAddr: 0x100002C08, symSize: 0x2C }
  - { offsetInCU: 0x17D12, offset: 0x17D12, size: 0x8, addend: 0x0, symName: __ZNSt3__119basic_istringstreamIcNS_11char_traitsIcEENS_9allocatorIcEEED1Ev, symObjAddr: 0x1540, symBinAddr: 0x100002C34, symSize: 0x40 }
  - { offsetInCU: 0x17D3F, offset: 0x17D3F, size: 0x8, addend: 0x0, symName: __ZNKSt3__16vectorINS_4listIN5Graph4EdgeENS_9allocatorIS3_EEEENS4_IS6_EEE4sizeB8ue170006Ev, symObjAddr: 0x1580, symBinAddr: 0x100002C74, symSize: 0x28 }
  - { offsetInCU: 0x17D65, offset: 0x17D65, size: 0x8, addend: 0x0, symName: __ZNSt3__16vectorINS0_IiNS_9allocatorIiEEEENS1_IS3_EEE6resizeEm, symObjAddr: 0x15A8, symBinAddr: 0x100002C9C, symSize: 0x9C }
  - { offsetInCU: 0x17DAB, offset: 0x17DAB, size: 0x8, addend: 0x0, symName: __ZNSt3__16vectorINS0_IiNS_9allocatorIiEEEENS1_IS3_EEE2atEm, symObjAddr: 0x1644, symBinAddr: 0x100002D38, symSize: 0x68 }
  - { offsetInCU: 0x17DE2, offset: 0x17DE2, size: 0x8, addend: 0x0, symName: __ZNSt3__16vectorIiNS_9allocatorIiEEE6resizeEm, symObjAddr: 0x16AC, symBinAddr: 0x100002DA0, symSize: 0x94 }
  - { offsetInCU: 0x17E28, offset: 0x17E28, size: 0x8, addend: 0x0, symName: __ZNSt3__16vectorINS0_IiNS_9allocatorIiEEEENS1_IS3_EEEixB8ue170006Em, symObjAddr: 0x1740, symBinAddr: 0x100002E34, symSize: 0x2C }
  - { offsetInCU: 0x17E5F, offset: 0x17E5F, size: 0x8, addend: 0x0, symName: __ZNSt3__16vectorIiNS_9allocatorIiEEEixB8ue170006Em, symObjAddr: 0x176C, symBinAddr: 0x100002E60, symSize: 0x24 }
  - { offsetInCU: 0x17E96, offset: 0x17E96, size: 0x8, addend: 0x0, symName: __ZNSt3__16vectorINS_4listIN5Graph4EdgeENS_9allocatorIS3_EEEENS4_IS6_EEE2atEm, symObjAddr: 0x1790, symBinAddr: 0x100002E84, symSize: 0x68 }
  - { offsetInCU: 0x17ECD, offset: 0x17ECD, size: 0x8, addend: 0x0, symName: __ZNSt3__14listIN5Graph4EdgeENS_9allocatorIS2_EEE5beginB8ue170006Ev, symObjAddr: 0x17F8, symBinAddr: 0x100002EEC, symSize: 0x2C }
  - { offsetInCU: 0x17EF3, offset: 0x17EF3, size: 0x8, addend: 0x0, symName: __ZNSt3__16vectorINS_4listIN5Graph4EdgeENS_9allocatorIS3_EEEENS4_IS6_EEEixB8ue170006Em, symObjAddr: 0x1858, symBinAddr: 0x100002F4C, symSize: 0x2C }
  - { offsetInCU: 0x17F2A, offset: 0x17F2A, size: 0x8, addend: 0x0, symName: __ZNSt3__14listIN5Graph4EdgeENS_9allocatorIS2_EEE3endB8ue170006Ev, symObjAddr: 0x1884, symBinAddr: 0x100002F78, symSize: 0x2C }
  - { offsetInCU: 0x17F50, offset: 0x17F50, size: 0x8, addend: 0x0, symName: __ZNKSt3__115__list_iteratorIN5Graph4EdgeEPvEptB8ue170006Ev, symObjAddr: 0x18B0, symBinAddr: 0x100002FA4, symSize: 0x30 }
  - { offsetInCU: 0x17F76, offset: 0x17F76, size: 0x8, addend: 0x0, symName: __ZNSt3__115__list_iteratorIN5Graph4EdgeEPvEppB8ue170006Ei, symObjAddr: 0x18E0, symBinAddr: 0x100002FD4, symSize: 0x34 }
  - { offsetInCU: 0x17FB6, offset: 0x17FB6, size: 0x8, addend: 0x0, symName: __ZNSt3__13mapINS_12basic_stringIcNS_11char_traitsIcEENS_9allocatorIcEEEEiNS_4lessIS6_EENS4_INS_4pairIKS6_iEEEEED1B8ue170006Ev, symObjAddr: 0x1914, symBinAddr: 0x100003008, symSize: 0x2C }
  - { offsetInCU: 0x17FE0, offset: 0x17FE0, size: 0x8, addend: 0x0, symName: __ZNSt3__16vectorINS_4listIN5Graph4EdgeENS_9allocatorIS3_EEEENS4_IS6_EEED1B8ue170006Ev, symObjAddr: 0x1940, symBinAddr: 0x100003034, symSize: 0x2C }
  - { offsetInCU: 0x1800A, offset: 0x1800A, size: 0x8, addend: 0x0, symName: __ZNSt3__16vectorINS_4listIN5Graph4EdgeENS_9allocatorIS3_EEEENS4_IS6_EEEC2B8ue170006Ev, symObjAddr: 0x196C, symBinAddr: 0x100003060, symSize: 0x4C }
  - { offsetInCU: 0x18034, offset: 0x18034, size: 0x8, addend: 0x0, symName: __ZNSt3__117__compressed_pairIPNS_4listIN5Graph4EdgeENS_9allocatorIS3_EEEENS4_IS6_EEEC1B8ue170006IDnNS_18__default_init_tagEEEOT_OT0_, symObjAddr: 0x19B8, symBinAddr: 0x1000030AC, symSize: 0x3C }
  - { offsetInCU: 0x1808C, offset: 0x1808C, size: 0x8, addend: 0x0, symName: __ZNSt3__117__compressed_pairIPNS_4listIN5Graph4EdgeENS_9allocatorIS3_EEEENS4_IS6_EEEC2B8ue170006IDnNS_18__default_init_tagEEEOT_OT0_, symObjAddr: 0x19F4, symBinAddr: 0x1000030E8, symSize: 0x40 }
  - { offsetInCU: 0x180E4, offset: 0x180E4, size: 0x8, addend: 0x0, symName: __ZNSt3__122__compressed_pair_elemIPNS_4listIN5Graph4EdgeENS_9allocatorIS3_EEEELi0ELb0EEC2B8ue170006IDnvEEOT_, symObjAddr: 0x1A34, symBinAddr: 0x100003128, symSize: 0x1C }
  - { offsetInCU: 0x18126, offset: 0x18126, size: 0x8, addend: 0x0, symName: __ZNSt3__122__compressed_pair_elemINS_9allocatorINS_4listIN5Graph4EdgeENS1_IS4_EEEEEELi1ELb1EEC2B8ue170006ENS_18__default_init_tagE, symObjAddr: 0x1A50, symBinAddr: 0x100003144, symSize: 0x2C }
  - { offsetInCU: 0x1815B, offset: 0x1815B, size: 0x8, addend: 0x0, symName: __ZNSt3__19allocatorINS_4listIN5Graph4EdgeENS0_IS3_EEEEEC2B8ue170006Ev, symObjAddr: 0x1A7C, symBinAddr: 0x100003170, symSize: 0x2C }
  - { offsetInCU: 0x18185, offset: 0x18185, size: 0x8, addend: 0x0, symName: __ZNSt3__116__non_trivial_ifILb1ENS_9allocatorINS_4listIN5Graph4EdgeENS1_IS4_EEEEEEEC2B8ue170006Ev, symObjAddr: 0x1AA8, symBinAddr: 0x10000319C, symSize: 0x14 }
  - { offsetInCU: 0x181AF, offset: 0x181AF, size: 0x8, addend: 0x0, symName: __ZNSt3__13mapINS_12basic_stringIcNS_11char_traitsIcEENS_9allocatorIcEEEEiNS_4lessIS6_EENS4_INS_4pairIKS6_iEEEEEC2B8ue170006Ev, symObjAddr: 0x1ABC, symBinAddr: 0x1000031B0, symSize: 0x40 }
  - { offsetInCU: 0x181D9, offset: 0x181D9, size: 0x8, addend: 0x0, symName: __ZNSt3__119__map_value_compareINS_12basic_stringIcNS_11char_traitsIcEENS_9allocatorIcEEEENS_12__value_typeIS6_iEENS_4lessIS6_EELb1EEC1B8ue170006ESA_, symObjAddr: 0x1AFC, symBinAddr: 0x1000031F0, symSize: 0x2C }
  - { offsetInCU: 0x18212, offset: 0x18212, size: 0x8, addend: 0x0, symName: __ZNSt3__16__treeINS_12__value_typeINS_12basic_stringIcNS_11char_traitsIcEENS_9allocatorIcEEEEiEENS_19__map_value_compareIS7_S8_NS_4lessIS7_EELb1EEENS5_IS8_EEEC1ERKSC_, symObjAddr: 0x1B28, symBinAddr: 0x10000321C, symSize: 0x34 }
  - { offsetInCU: 0x1824D, offset: 0x1824D, size: 0x8, addend: 0x0, symName: __ZNSt3__119__map_value_compareINS_12basic_stringIcNS_11char_traitsIcEENS_9allocatorIcEEEENS_12__value_typeIS6_iEENS_4lessIS6_EELb1EEC2B8ue170006ESA_, symObjAddr: 0x1B5C, symBinAddr: 0x100003250, symSize: 0x14 }
  - { offsetInCU: 0x18286, offset: 0x18286, size: 0x8, addend: 0x0, symName: __ZNSt3__16__treeINS_12__value_typeINS_12basic_stringIcNS_11char_traitsIcEENS_9allocatorIcEEEEiEENS_19__map_value_compareIS7_S8_NS_4lessIS7_EELb1EEENS5_IS8_EEEC2ERKSC_, symObjAddr: 0x1B70, symBinAddr: 0x100003264, symSize: 0x7C }
  - { offsetInCU: 0x182C1, offset: 0x182C1, size: 0x8, addend: 0x0, symName: __ZNSt3__117__compressed_pairINS_15__tree_end_nodeIPNS_16__tree_node_baseIPvEEEENS_9allocatorINS_11__tree_nodeINS_12__value_typeINS_12basic_stringIcNS_11char_traitsIcEENS7_IcEEEEiEES3_EEEEEC1B8ue170006ILb1EvEEv, symObjAddr: 0x1BEC, symBinAddr: 0x1000032E0, symSize: 0x2C }
  - { offsetInCU: 0x182FC, offset: 0x182FC, size: 0x8, addend: 0x0, symName: __ZNSt3__117__compressed_pairImNS_19__map_value_compareINS_12basic_stringIcNS_11char_traitsIcEENS_9allocatorIcEEEENS_12__value_typeIS7_iEENS_4lessIS7_EELb1EEEEC1B8ue170006IiRKSC_EEOT_OT0_, symObjAddr: 0x1C18, symBinAddr: 0x10000330C, symSize: 0x3C }
  - { offsetInCU: 0x18354, offset: 0x18354, size: 0x8, addend: 0x0, symName: __ZNSt3__16__treeINS_12__value_typeINS_12basic_stringIcNS_11char_traitsIcEENS_9allocatorIcEEEEiEENS_19__map_value_compareIS7_S8_NS_4lessIS7_EELb1EEENS5_IS8_EEE10__end_nodeB8ue170006Ev, symObjAddr: 0x1C54, symBinAddr: 0x100003348, symSize: 0x2C }
  - { offsetInCU: 0x1837A, offset: 0x1837A, size: 0x8, addend: 0x0, symName: __ZNSt3__16__treeINS_12__value_typeINS_12basic_stringIcNS_11char_traitsIcEENS_9allocatorIcEEEEiEENS_19__map_value_compareIS7_S8_NS_4lessIS7_EELb1EEENS5_IS8_EEE12__begin_nodeB8ue170006Ev, symObjAddr: 0x1C80, symBinAddr: 0x100003374, symSize: 0x14 }
  - { offsetInCU: 0x183A0, offset: 0x183A0, size: 0x8, addend: 0x0, symName: __ZNSt3__117__compressed_pairINS_15__tree_end_nodeIPNS_16__tree_node_baseIPvEEEENS_9allocatorINS_11__tree_nodeINS_12__value_typeINS_12basic_stringIcNS_11char_traitsIcEENS7_IcEEEEiEES3_EEEEEC2B8ue170006ILb1EvEEv, symObjAddr: 0x1C94, symBinAddr: 0x100003388, symSize: 0x34 }
  - { offsetInCU: 0x183D5, offset: 0x183D5, size: 0x8, addend: 0x0, symName: __ZNSt3__122__compressed_pair_elemINS_15__tree_end_nodeIPNS_16__tree_node_baseIPvEEEELi0ELb0EEC2B8ue170006ENS_16__value_init_tagE, symObjAddr: 0x1CC8, symBinAddr: 0x1000033BC, symSize: 0x2C }
  - { offsetInCU: 0x1840A, offset: 0x1840A, size: 0x8, addend: 0x0, symName: __ZNSt3__122__compressed_pair_elemINS_9allocatorINS_11__tree_nodeINS_12__value_typeINS_12basic_stringIcNS_11char_traitsIcEENS1_IcEEEEiEEPvEEEELi1ELb1EEC2B8ue170006ENS_16__value_init_tagE, symObjAddr: 0x1CF4, symBinAddr: 0x1000033E8, symSize: 0x2C }
  - { offsetInCU: 0x1843F, offset: 0x1843F, size: 0x8, addend: 0x0, symName: __ZNSt3__115__tree_end_nodeIPNS_16__tree_node_baseIPvEEEC1B8ue170006Ev, symObjAddr: 0x1D20, symBinAddr: 0x100003414, symSize: 0x2C }
  - { offsetInCU: 0x18469, offset: 0x18469, size: 0x8, addend: 0x0, symName: __ZNSt3__115__tree_end_nodeIPNS_16__tree_node_baseIPvEEEC2B8ue170006Ev, symObjAddr: 0x1D4C, symBinAddr: 0x100003440, symSize: 0x18 }
  - { offsetInCU: 0x18493, offset: 0x18493, size: 0x8, addend: 0x0, symName: __ZNSt3__19allocatorINS_11__tree_nodeINS_12__value_typeINS_12basic_stringIcNS_11char_traitsIcEENS0_IcEEEEiEEPvEEEC2B8ue170006Ev, symObjAddr: 0x1D64, symBinAddr: 0x100003458, symSize: 0x2C }
  - { offsetInCU: 0x184BD, offset: 0x184BD, size: 0x8, addend: 0x0, symName: __ZNSt3__116__non_trivial_ifILb1ENS_9allocatorINS_11__tree_nodeINS_12__value_typeINS_12basic_stringIcNS_11char_traitsIcEENS1_IcEEEEiEEPvEEEEEC2B8ue170006Ev, symObjAddr: 0x1D90, symBinAddr: 0x100003484, symSize: 0x14 }
  - { offsetInCU: 0x184E7, offset: 0x184E7, size: 0x8, addend: 0x0, symName: __ZNSt3__117__compressed_pairImNS_19__map_value_compareINS_12basic_stringIcNS_11char_traitsIcEENS_9allocatorIcEEEENS_12__value_typeIS7_iEENS_4lessIS7_EELb1EEEEC2B8ue170006IiRKSC_EEOT_OT0_, symObjAddr: 0x1DA4, symBinAddr: 0x100003498, symSize: 0x44 }
  - { offsetInCU: 0x1853F, offset: 0x1853F, size: 0x8, addend: 0x0, symName: __ZNSt3__122__compressed_pair_elemImLi0ELb0EEC2B8ue170006IivEEOT_, symObjAddr: 0x1DE8, symBinAddr: 0x1000034DC, symSize: 0x24 }
  - { offsetInCU: 0x18581, offset: 0x18581, size: 0x8, addend: 0x0, symName: __ZNSt3__122__compressed_pair_elemINS_19__map_value_compareINS_12basic_stringIcNS_11char_traitsIcEENS_9allocatorIcEEEENS_12__value_typeIS7_iEENS_4lessIS7_EELb1EEELi1ELb1EEC2B8ue170006IRKSC_vEEOT_, symObjAddr: 0x1E0C, symBinAddr: 0x100003500, symSize: 0x18 }
  - { offsetInCU: 0x185C3, offset: 0x185C3, size: 0x8, addend: 0x0, symName: __ZNSt3__114pointer_traitsIPNS_15__tree_end_nodeIPNS_16__tree_node_baseIPvEEEEE10pointer_toB8ue170006ERS6_, symObjAddr: 0x1E24, symBinAddr: 0x100003518, symSize: 0x14 }
  - { offsetInCU: 0x185E6, offset: 0x185E6, size: 0x8, addend: 0x0, symName: __ZNSt3__117__compressed_pairINS_15__tree_end_nodeIPNS_16__tree_node_baseIPvEEEENS_9allocatorINS_11__tree_nodeINS_12__value_typeINS_12basic_stringIcNS_11char_traitsIcEENS7_IcEEEEiEES3_EEEEE5firstB8ue170006Ev, symObjAddr: 0x1E38, symBinAddr: 0x10000352C, symSize: 0x24 }
  - { offsetInCU: 0x1860C, offset: 0x1860C, size: 0x8, addend: 0x0, symName: __ZNSt3__122__compressed_pair_elemINS_15__tree_end_nodeIPNS_16__tree_node_baseIPvEEEELi0ELb0EE5__getB8ue170006Ev, symObjAddr: 0x1E5C, symBinAddr: 0x100003550, symSize: 0x14 }
  - { offsetInCU: 0x18632, offset: 0x18632, size: 0x8, addend: 0x0, symName: __ZNSt3__112basic_stringIcNS_11char_traitsIcEENS_9allocatorIcEEEC2B8ue170006Ev, symObjAddr: 0x1E70, symBinAddr: 0x100003564, symSize: 0x48 }
  - { offsetInCU: 0x1865C, offset: 0x1865C, size: 0x8, addend: 0x0, symName: __ZNSt3__117__compressed_pairINS_12basic_stringIcNS_11char_traitsIcEENS_9allocatorIcEEE5__repES5_EC1B8ue170006INS_18__default_init_tagESA_EEOT_OT0_, symObjAddr: 0x1EB8, symBinAddr: 0x1000035AC, symSize: 0x3C }
  - { offsetInCU: 0x186B4, offset: 0x186B4, size: 0x8, addend: 0x0, symName: __ZNSt3__112basic_stringIcNS_11char_traitsIcEENS_9allocatorIcEEE14__default_initB8ue170006Ev, symObjAddr: 0x1EF4, symBinAddr: 0x1000035E8, symSize: 0x40 }
  - { offsetInCU: 0x186DA, offset: 0x186DA, size: 0x8, addend: 0x0, symName: __ZNSt3__117__compressed_pairINS_12basic_stringIcNS_11char_traitsIcEENS_9allocatorIcEEE5__repES5_EC2B8ue170006INS_18__default_init_tagESA_EEOT_OT0_, symObjAddr: 0x1F34, symBinAddr: 0x100003628, symSize: 0x3C }
  - { offsetInCU: 0x18732, offset: 0x18732, size: 0x8, addend: 0x0, symName: __ZNSt3__122__compressed_pair_elemINS_12basic_stringIcNS_11char_traitsIcEENS_9allocatorIcEEE5__repELi0ELb0EEC2B8ue170006ENS_18__default_init_tagE, symObjAddr: 0x1F70, symBinAddr: 0x100003664, symSize: 0x14 }
  - { offsetInCU: 0x18767, offset: 0x18767, size: 0x8, addend: 0x0, symName: __ZNSt3__122__compressed_pair_elemINS_9allocatorIcEELi1ELb1EEC2B8ue170006ENS_18__default_init_tagE, symObjAddr: 0x1F84, symBinAddr: 0x100003678, symSize: 0x2C }
  - { offsetInCU: 0x1879C, offset: 0x1879C, size: 0x8, addend: 0x0, symName: __ZNSt3__19allocatorIcEC2B8ue170006Ev, symObjAddr: 0x1FB0, symBinAddr: 0x1000036A4, symSize: 0x2C }
  - { offsetInCU: 0x187C6, offset: 0x187C6, size: 0x8, addend: 0x0, symName: __ZNSt3__116__non_trivial_ifILb1ENS_9allocatorIcEEEC2B8ue170006Ev, symObjAddr: 0x1FDC, symBinAddr: 0x1000036D0, symSize: 0x14 }
  - { offsetInCU: 0x187F0, offset: 0x187F0, size: 0x8, addend: 0x0, symName: __ZNSt3__117__compressed_pairINS_12basic_stringIcNS_11char_traitsIcEENS_9allocatorIcEEE5__repES5_E5firstB8ue170006Ev, symObjAddr: 0x1FF0, symBinAddr: 0x1000036E4, symSize: 0x24 }
  - { offsetInCU: 0x18816, offset: 0x18816, size: 0x8, addend: 0x0, symName: __ZNSt3__122__compressed_pair_elemINS_12basic_stringIcNS_11char_traitsIcEENS_9allocatorIcEEE5__repELi0ELb0EE5__getB8ue170006Ev, symObjAddr: 0x2014, symBinAddr: 0x100003708, symSize: 0x14 }
  - { offsetInCU: 0x1883C, offset: 0x1883C, size: 0x8, addend: 0x0, symName: __ZNKSt3__19basic_iosIcNS_11char_traitsIcEEE5widenB8ue170006Ec, symObjAddr: 0x2260, symBinAddr: 0x100003954, symSize: 0x84 }
  - { offsetInCU: 0x18894, offset: 0x18894, size: 0x8, addend: 0x0, symName: __ZNKSt3__113basic_istreamIcNS_11char_traitsIcEEE6sentrycvbB8ue170006Ev, symObjAddr: 0x22E4, symBinAddr: 0x1000039D8, symSize: 0x1C }
  - { offsetInCU: 0x188BA, offset: 0x188BA, size: 0x8, addend: 0x0, symName: __ZNSt3__112basic_stringIcNS_11char_traitsIcEENS_9allocatorIcEEE5clearB8ue170006Ev, symObjAddr: 0x2300, symBinAddr: 0x1000039F4, symSize: 0x78 }
  - { offsetInCU: 0x188E2, offset: 0x188E2, size: 0x8, addend: 0x0, symName: __ZNKSt3__19basic_iosIcNS_11char_traitsIcEEE5rdbufB8ue170006Ev, symObjAddr: 0x2378, symBinAddr: 0x100003A6C, symSize: 0x24 }
  - { offsetInCU: 0x1890A, offset: 0x1890A, size: 0x8, addend: 0x0, symName: __ZNSt3__115basic_streambufIcNS_11char_traitsIcEEE6sbumpcB8ue170006Ev, symObjAddr: 0x239C, symBinAddr: 0x100003A90, symSize: 0x78 }
  - { offsetInCU: 0x18930, offset: 0x18930, size: 0x8, addend: 0x0, symName: __ZNSt3__111char_traitsIcE11eq_int_typeB8ue170006Eii, symObjAddr: 0x2414, symBinAddr: 0x100003B08, symSize: 0x28 }
  - { offsetInCU: 0x18963, offset: 0x18963, size: 0x8, addend: 0x0, symName: __ZNSt3__111char_traitsIcE3eofB8ue170006Ev, symObjAddr: 0x243C, symBinAddr: 0x100003B30, symSize: 0x8 }
  - { offsetInCU: 0x18977, offset: 0x18977, size: 0x8, addend: 0x0, symName: __ZNSt3__111char_traitsIcE12to_char_typeB8ue170006Ei, symObjAddr: 0x2444, symBinAddr: 0x100003B38, symSize: 0x18 }
  - { offsetInCU: 0x1899A, offset: 0x1899A, size: 0x8, addend: 0x0, symName: __ZNSt3__111char_traitsIcE2eqEcc, symObjAddr: 0x245C, symBinAddr: 0x100003B50, symSize: 0x28 }
  - { offsetInCU: 0x189CB, offset: 0x189CB, size: 0x8, addend: 0x0, symName: __ZNKSt3__112basic_stringIcNS_11char_traitsIcEENS_9allocatorIcEEE4sizeB8ue170006Ev, symObjAddr: 0x2484, symBinAddr: 0x100003B78, symSize: 0x54 }
  - { offsetInCU: 0x189F1, offset: 0x189F1, size: 0x8, addend: 0x0, symName: __ZNKSt3__112basic_stringIcNS_11char_traitsIcEENS_9allocatorIcEEE8max_sizeB8ue170006Ev, symObjAddr: 0x24D8, symBinAddr: 0x100003BCC, symSize: 0xAC }
  - { offsetInCU: 0x18A43, offset: 0x18A43, size: 0x8, addend: 0x0, symName: __ZNSt3__18ios_base18__setstate_nothrowB8ue170006Ej, symObjAddr: 0x2584, symBinAddr: 0x100003C78, symSize: 0x64 }
  - { offsetInCU: 0x18A78, offset: 0x18A78, size: 0x8, addend: 0x0, symName: __ZNKSt3__19basic_iosIcNS_11char_traitsIcEEE10exceptionsB8ue170006Ev, symObjAddr: 0x25E8, symBinAddr: 0x100003CDC, symSize: 0x24 }
  - { offsetInCU: 0x18A9E, offset: 0x18A9E, size: 0x8, addend: 0x0, symName: __ZNSt3__19basic_iosIcNS_11char_traitsIcEEE8setstateB8ue170006Ej, symObjAddr: 0x260C, symBinAddr: 0x100003D00, symSize: 0x2C }
  - { offsetInCU: 0x18AD3, offset: 0x18AD3, size: 0x8, addend: 0x0, symName: __ZNKSt3__112basic_stringIcNS_11char_traitsIcEENS_9allocatorIcEEE9__is_longB8ue170006Ev, symObjAddr: 0x2638, symBinAddr: 0x100003D2C, symSize: 0x38 }
  - { offsetInCU: 0x18AF9, offset: 0x18AF9, size: 0x8, addend: 0x0, symName: __ZNSt3__111char_traitsIcE6assignB8ue170006ERcRKc, symObjAddr: 0x2670, symBinAddr: 0x100003D64, symSize: 0x24 }
  - { offsetInCU: 0x18B2A, offset: 0x18B2A, size: 0x8, addend: 0x0, symName: __ZNSt3__112basic_stringIcNS_11char_traitsIcEENS_9allocatorIcEEE18__get_long_pointerB8ue170006Ev, symObjAddr: 0x2694, symBinAddr: 0x100003D88, symSize: 0x28 }
  - { offsetInCU: 0x18B50, offset: 0x18B50, size: 0x8, addend: 0x0, symName: __ZNSt3__112basic_stringIcNS_11char_traitsIcEENS_9allocatorIcEEE15__set_long_sizeB8ue170006Em, symObjAddr: 0x26BC, symBinAddr: 0x100003DB0, symSize: 0x38 }
  - { offsetInCU: 0x18B85, offset: 0x18B85, size: 0x8, addend: 0x0, symName: __ZNSt3__112basic_stringIcNS_11char_traitsIcEENS_9allocatorIcEEE19__get_short_pointerB8ue170006Ev, symObjAddr: 0x26F4, symBinAddr: 0x100003DE8, symSize: 0x28 }
  - { offsetInCU: 0x18BAB, offset: 0x18BAB, size: 0x8, addend: 0x0, symName: __ZNSt3__112basic_stringIcNS_11char_traitsIcEENS_9allocatorIcEEE16__set_short_sizeB8ue170006Em, symObjAddr: 0x271C, symBinAddr: 0x100003E10, symSize: 0x78 }
  - { offsetInCU: 0x18BE0, offset: 0x18BE0, size: 0x8, addend: 0x0, symName: __ZNKSt3__117__compressed_pairINS_12basic_stringIcNS_11char_traitsIcEENS_9allocatorIcEEE5__repES5_E5firstB8ue170006Ev, symObjAddr: 0x2794, symBinAddr: 0x100003E88, symSize: 0x24 }
  - { offsetInCU: 0x18C06, offset: 0x18C06, size: 0x8, addend: 0x0, symName: __ZNKSt3__122__compressed_pair_elemINS_12basic_stringIcNS_11char_traitsIcEENS_9allocatorIcEEE5__repELi0ELb0EE5__getB8ue170006Ev, symObjAddr: 0x27B8, symBinAddr: 0x100003EAC, symSize: 0x14 }
  - { offsetInCU: 0x18C2C, offset: 0x18C2C, size: 0x8, addend: 0x0, symName: __ZNSt3__114pointer_traitsIPcE10pointer_toB8ue170006ERc, symObjAddr: 0x27CC, symBinAddr: 0x100003EC0, symSize: 0x14 }
  - { offsetInCU: 0x18C4F, offset: 0x18C4F, size: 0x8, addend: 0x0, symName: __ZNKSt3__18ios_base5rdbufB8ue170006Ev, symObjAddr: 0x27E0, symBinAddr: 0x100003ED4, symSize: 0x18 }
  - { offsetInCU: 0x18C75, offset: 0x18C75, size: 0x8, addend: 0x0, symName: __ZNSt3__111char_traitsIcE11to_int_typeB8ue170006Ec, symObjAddr: 0x27F8, symBinAddr: 0x100003EEC, symSize: 0x14 }
  - { offsetInCU: 0x18C99, offset: 0x18C99, size: 0x8, addend: 0x0, symName: __ZNKSt3__112basic_stringIcNS_11char_traitsIcEENS_9allocatorIcEEE15__get_long_sizeB8ue170006Ev, symObjAddr: 0x280C, symBinAddr: 0x100003F00, symSize: 0x28 }
  - { offsetInCU: 0x18CBF, offset: 0x18CBF, size: 0x8, addend: 0x0, symName: __ZNKSt3__112basic_stringIcNS_11char_traitsIcEENS_9allocatorIcEEE16__get_short_sizeB8ue170006Ev, symObjAddr: 0x2834, symBinAddr: 0x100003F28, symSize: 0x34 }
  - { offsetInCU: 0x18CF0, offset: 0x18CF0, size: 0x8, addend: 0x0, symName: __ZNSt3__116allocator_traitsINS_9allocatorIcEEE8max_sizeB8ue170006IS2_vEEmRKS2_, symObjAddr: 0x2868, symBinAddr: 0x100003F5C, symSize: 0x24 }
  - { offsetInCU: 0x18D1E, offset: 0x18D1E, size: 0x8, addend: 0x0, symName: __ZNKSt3__112basic_stringIcNS_11char_traitsIcEENS_9allocatorIcEEE7__allocB8ue170006Ev, symObjAddr: 0x288C, symBinAddr: 0x100003F80, symSize: 0x24 }
  - { offsetInCU: 0x18D44, offset: 0x18D44, size: 0x8, addend: 0x0, symName: __ZNSt3__114numeric_limitsImE3maxB8ue170006Ev, symObjAddr: 0x28B0, symBinAddr: 0x100003FA4, symSize: 0x14 }
  - { offsetInCU: 0x18D58, offset: 0x18D58, size: 0x8, addend: 0x0, symName: __ZNKSt3__19allocatorIcE8max_sizeB8ue170006Ev, symObjAddr: 0x28C4, symBinAddr: 0x100003FB8, symSize: 0x14 }
  - { offsetInCU: 0x18D7E, offset: 0x18D7E, size: 0x8, addend: 0x0, symName: __ZNKSt3__117__compressed_pairINS_12basic_stringIcNS_11char_traitsIcEENS_9allocatorIcEEE5__repES5_E6secondB8ue170006Ev, symObjAddr: 0x28D8, symBinAddr: 0x100003FCC, symSize: 0x24 }
  - { offsetInCU: 0x18DA4, offset: 0x18DA4, size: 0x8, addend: 0x0, symName: __ZNKSt3__122__compressed_pair_elemINS_9allocatorIcEELi1ELb1EE5__getB8ue170006Ev, symObjAddr: 0x28FC, symBinAddr: 0x100003FF0, symSize: 0x14 }
  - { offsetInCU: 0x18DCA, offset: 0x18DCA, size: 0x8, addend: 0x0, symName: __ZNSt3__123__libcpp_numeric_limitsImLb1EE3maxB8ue170006Ev, symObjAddr: 0x2910, symBinAddr: 0x100004004, symSize: 0x8 }
  - { offsetInCU: 0x18DDE, offset: 0x18DDE, size: 0x8, addend: 0x0, symName: __ZNKSt3__18ios_base10exceptionsB8ue170006Ev, symObjAddr: 0x2918, symBinAddr: 0x10000400C, symSize: 0x18 }
  - { offsetInCU: 0x18E06, offset: 0x18E06, size: 0x8, addend: 0x0, symName: __ZNSt3__18ios_base8setstateB8ue170006Ej, symObjAddr: 0x2930, symBinAddr: 0x100004024, symSize: 0x34 }
  - { offsetInCU: 0x18E6A, offset: 0x18E6A, size: 0x8, addend: 0x0, symName: __ZNKSt3__15ctypeIcE5widenB8ue170006Ec, symObjAddr: 0x2990, symBinAddr: 0x100004084, symSize: 0x38 }
  - { offsetInCU: 0x18E9F, offset: 0x18E9F, size: 0x8, addend: 0x0, symName: __ZNKSt3__19basic_iosIcNS_11char_traitsIcEEE4failB8ue170006Ev, symObjAddr: 0x29C8, symBinAddr: 0x1000040BC, symSize: 0x28 }
  - { offsetInCU: 0x18EC5, offset: 0x18EC5, size: 0x8, addend: 0x0, symName: __ZNKSt3__18ios_base4failB8ue170006Ev, symObjAddr: 0x29F0, symBinAddr: 0x1000040E4, symSize: 0x28 }
  - { offsetInCU: 0x18EED, offset: 0x18EED, size: 0x8, addend: 0x0, symName: __ZNSt3__19basic_iosIcNS_11char_traitsIcEEEC2B8ue170006Ev, symObjAddr: 0x2A18, symBinAddr: 0x10000410C, symSize: 0x44 }
  - { offsetInCU: 0x18F17, offset: 0x18F17, size: 0x8, addend: 0x0, symName: __ZNSt3__113basic_istreamIcNS_11char_traitsIcEEEC2B8ue170006EPNS_15basic_streambufIcS2_EE, symObjAddr: 0x2A5C, symBinAddr: 0x100004150, symSize: 0x64 }
  - { offsetInCU: 0x18F5C, offset: 0x18F5C, size: 0x8, addend: 0x0, symName: __ZNSt3__115basic_stringbufIcNS_11char_traitsIcEENS_9allocatorIcEEEC1B8ue170006ERKNS_12basic_stringIcS2_S4_EEj, symObjAddr: 0x2AC0, symBinAddr: 0x1000041B4, symSize: 0x3C }
  - { offsetInCU: 0x18FA4, offset: 0x18FA4, size: 0x8, addend: 0x0, symName: __ZNSt3__18ios_baseC2B8ue170006Ev, symObjAddr: 0x2AFC, symBinAddr: 0x1000041F0, symSize: 0x24 }
  - { offsetInCU: 0x18FCE, offset: 0x18FCE, size: 0x8, addend: 0x0, symName: __ZNSt3__19basic_iosIcNS_11char_traitsIcEEE4initB8ue170006EPNS_15basic_streambufIcS2_EE, symObjAddr: 0x2B20, symBinAddr: 0x100004214, symSize: 0x44 }
  - { offsetInCU: 0x19005, offset: 0x19005, size: 0x8, addend: 0x0, symName: __ZNSt3__115basic_stringbufIcNS_11char_traitsIcEENS_9allocatorIcEEEC2B8ue170006ERKNS_12basic_stringIcS2_S4_EEj, symObjAddr: 0x2B64, symBinAddr: 0x100004258, symSize: 0xB4 }
  - { offsetInCU: 0x1904D, offset: 0x1904D, size: 0x8, addend: 0x0, symName: __ZNKSt3__112basic_stringIcNS_11char_traitsIcEENS_9allocatorIcEEE13get_allocatorB8ue170006Ev, symObjAddr: 0x2C18, symBinAddr: 0x10000430C, symSize: 0x24 }
  - { offsetInCU: 0x19073, offset: 0x19073, size: 0x8, addend: 0x0, symName: __ZNSt3__112basic_stringIcNS_11char_traitsIcEENS_9allocatorIcEEEC1B8ue170006ERKS4_, symObjAddr: 0x2C3C, symBinAddr: 0x100004330, symSize: 0x34 }
  - { offsetInCU: 0x190AC, offset: 0x190AC, size: 0x8, addend: 0x0, symName: __ZNSt3__112basic_stringIcNS_11char_traitsIcEENS_9allocatorIcEEEC2B8ue170006ERKS4_, symObjAddr: 0x2C70, symBinAddr: 0x100004364, symSize: 0x48 }
  - { offsetInCU: 0x190E5, offset: 0x190E5, size: 0x8, addend: 0x0, symName: __ZNSt3__117__compressed_pairINS_12basic_stringIcNS_11char_traitsIcEENS_9allocatorIcEEE5__repES5_EC1B8ue170006INS_18__default_init_tagERKS5_EEOT_OT0_, symObjAddr: 0x2CB8, symBinAddr: 0x1000043AC, symSize: 0x3C }
  - { offsetInCU: 0x1913D, offset: 0x1913D, size: 0x8, addend: 0x0, symName: __ZNSt3__117__compressed_pairINS_12basic_stringIcNS_11char_traitsIcEENS_9allocatorIcEEE5__repES5_EC2B8ue170006INS_18__default_init_tagERKS5_EEOT_OT0_, symObjAddr: 0x2CF4, symBinAddr: 0x1000043E8, symSize: 0x40 }
  - { offsetInCU: 0x19195, offset: 0x19195, size: 0x8, addend: 0x0, symName: __ZNSt3__122__compressed_pair_elemINS_9allocatorIcEELi1ELb1EEC2B8ue170006IRKS2_vEEOT_, symObjAddr: 0x2D34, symBinAddr: 0x100004428, symSize: 0x18 }
  - { offsetInCU: 0x191D7, offset: 0x191D7, size: 0x8, addend: 0x0, symName: __ZNSt3__16vectorIiNS_9allocatorIiEEEC2B8ue170006Ev, symObjAddr: 0x2D4C, symBinAddr: 0x100004440, symSize: 0x4C }
  - { offsetInCU: 0x19201, offset: 0x19201, size: 0x8, addend: 0x0, symName: __ZNSt3__117__compressed_pairIPiNS_9allocatorIiEEEC1B8ue170006IDnNS_18__default_init_tagEEEOT_OT0_, symObjAddr: 0x2D98, symBinAddr: 0x10000448C, symSize: 0x3C }
  - { offsetInCU: 0x19259, offset: 0x19259, size: 0x8, addend: 0x0, symName: __ZNSt3__117__compressed_pairIPiNS_9allocatorIiEEEC2B8ue170006IDnNS_18__default_init_tagEEEOT_OT0_, symObjAddr: 0x2DD4, symBinAddr: 0x1000044C8, symSize: 0x40 }
  - { offsetInCU: 0x192B1, offset: 0x192B1, size: 0x8, addend: 0x0, symName: __ZNSt3__122__compressed_pair_elemIPiLi0ELb0EEC2B8ue170006IDnvEEOT_, symObjAddr: 0x2E14, symBinAddr: 0x100004508, symSize: 0x1C }
  - { offsetInCU: 0x192F3, offset: 0x192F3, size: 0x8, addend: 0x0, symName: __ZNSt3__122__compressed_pair_elemINS_9allocatorIiEELi1ELb1EEC2B8ue170006ENS_18__default_init_tagE, symObjAddr: 0x2E30, symBinAddr: 0x100004524, symSize: 0x2C }
  - { offsetInCU: 0x19328, offset: 0x19328, size: 0x8, addend: 0x0, symName: __ZNSt3__19allocatorIiEC2B8ue170006Ev, symObjAddr: 0x2E5C, symBinAddr: 0x100004550, symSize: 0x2C }
  - { offsetInCU: 0x19352, offset: 0x19352, size: 0x8, addend: 0x0, symName: __ZNSt3__116__non_trivial_ifILb1ENS_9allocatorIiEEEC2B8ue170006Ev, symObjAddr: 0x2E88, symBinAddr: 0x10000457C, symSize: 0x14 }
  - { offsetInCU: 0x1937C, offset: 0x1937C, size: 0x8, addend: 0x0, symName: __ZNKSt3__18ios_base5widthB8ue170006Ev, symObjAddr: 0x2E9C, symBinAddr: 0x100004590, symSize: 0x18 }
  - { offsetInCU: 0x193A4, offset: 0x193A4, size: 0x8, addend: 0x0, symName: __ZNSt3__114numeric_limitsIlE3maxB8ue170006Ev, symObjAddr: 0x2EB4, symBinAddr: 0x1000045A8, symSize: 0x14 }
  - { offsetInCU: 0x193B8, offset: 0x193B8, size: 0x8, addend: 0x0, symName: __ZNSt3__115basic_streambufIcNS_11char_traitsIcEEE5sgetcB8ue170006Ev, symObjAddr: 0x2EC8, symBinAddr: 0x1000045BC, symSize: 0x70 }
  - { offsetInCU: 0x193DE, offset: 0x193DE, size: 0x8, addend: 0x0, symName: __ZNKSt3__15ctypeIcE2isB8ue170006Ejc, symObjAddr: 0x2F38, symBinAddr: 0x10000462C, symSize: 0x7C }
  - { offsetInCU: 0x19422, offset: 0x19422, size: 0x8, addend: 0x0, symName: __ZNSt3__18ios_base5widthB8ue170006El, symObjAddr: 0x2FB4, symBinAddr: 0x1000046A8, symSize: 0x2C }
  - { offsetInCU: 0x19468, offset: 0x19468, size: 0x8, addend: 0x0, symName: __ZNSt3__123__libcpp_numeric_limitsIlLb1EE3maxB8ue170006Ev, symObjAddr: 0x2FE0, symBinAddr: 0x1000046D4, symSize: 0x8 }
  - { offsetInCU: 0x1947B, offset: 0x1947B, size: 0x8, addend: 0x0, symName: __Z7isasciii, symObjAddr: 0x2FE8, symBinAddr: 0x1000046DC, symSize: 0x24 }
  - { offsetInCU: 0x194BF, offset: 0x194BF, size: 0x8, addend: 0x0, symName: __ZNSt3__16__treeINS_12__value_typeINS_12basic_stringIcNS_11char_traitsIcEENS_9allocatorIcEEEEiEENS_19__map_value_compareIS7_S8_NS_4lessIS7_EELb1EEENS5_IS8_EEE25__emplace_unique_key_argsIS7_JRKNS_21piecewise_construct_tENS_5tupleIJRKS7_EEENSJ_IJEEEEEENS_4pairINS_15__tree_iteratorIS8_PNS_11__tree_nodeIS8_PvEElEEbEERKT_DpOT0_, symObjAddr: 0x300C, symBinAddr: 0x100004700, symSize: 0x100 }
  - { offsetInCU: 0x19595, offset: 0x19595, size: 0x8, addend: 0x0, symName: __ZNKSt3__115__tree_iteratorINS_12__value_typeINS_12basic_stringIcNS_11char_traitsIcEENS_9allocatorIcEEEEiEEPNS_11__tree_nodeIS8_PvEElEptB8ue170006Ev, symObjAddr: 0x313C, symBinAddr: 0x100004830, symSize: 0x2C }
  - { offsetInCU: 0x195BB, offset: 0x195BB, size: 0x8, addend: 0x0, symName: __ZNSt3__112__value_typeINS_12basic_stringIcNS_11char_traitsIcEENS_9allocatorIcEEEEiE11__get_valueB8ue170006Ev, symObjAddr: 0x3168, symBinAddr: 0x10000485C, symSize: 0x14 }
  - { offsetInCU: 0x195E1, offset: 0x195E1, size: 0x8, addend: 0x0, symName: __ZNSt3__16__treeINS_12__value_typeINS_12basic_stringIcNS_11char_traitsIcEENS_9allocatorIcEEEEiEENS_19__map_value_compareIS7_S8_NS_4lessIS7_EELb1EEENS5_IS8_EEE12__find_equalIS7_EERPNS_16__tree_node_baseIPvEERPNS_15__tree_end_nodeISJ_EERKT_, symObjAddr: 0x317C, symBinAddr: 0x100004870, symSize: 0x184 }
  - { offsetInCU: 0x1964E, offset: 0x1964E, size: 0x8, addend: 0x0, symName: __ZNSt3__16__treeINS_12__value_typeINS_12basic_stringIcNS_11char_traitsIcEENS_9allocatorIcEEEEiEENS_19__map_value_compareIS7_S8_NS_4lessIS7_EELb1EEENS5_IS8_EEE16__construct_nodeIJRKNS_21piecewise_construct_tENS_5tupleIJRKS7_EEENSJ_IJEEEEEENS_10unique_ptrINS_11__tree_nodeIS8_PvEENS_22__tree_node_destructorINS5_ISR_EEEEEEDpOT_, symObjAddr: 0x3300, symBinAddr: 0x1000049F4, symSize: 0x120 }
  - { offsetInCU: 0x196D7, offset: 0x196D7, size: 0x8, addend: 0x0, symName: __ZNSt3__16__treeINS_12__value_typeINS_12basic_stringIcNS_11char_traitsIcEENS_9allocatorIcEEEEiEENS_19__map_value_compareIS7_S8_NS_4lessIS7_EELb1EEENS5_IS8_EEE16__insert_node_atEPNS_15__tree_end_nodeIPNS_16__tree_node_baseIPvEEEERSJ_SJ_, symObjAddr: 0x3420, symBinAddr: 0x100004B14, symSize: 0xCC }
  - { offsetInCU: 0x1972C, offset: 0x1972C, size: 0x8, addend: 0x0, symName: __ZNKSt3__110unique_ptrINS_11__tree_nodeINS_12__value_typeINS_12basic_stringIcNS_11char_traitsIcEENS_9allocatorIcEEEEiEEPvEENS_22__tree_node_destructorINS6_ISB_EEEEE3getB8ue170006Ev, symObjAddr: 0x34EC, symBinAddr: 0x100004BE0, symSize: 0x28 }
  - { offsetInCU: 0x19752, offset: 0x19752, size: 0x8, addend: 0x0, symName: __ZNSt3__110unique_ptrINS_11__tree_nodeINS_12__value_typeINS_12basic_stringIcNS_11char_traitsIcEENS_9allocatorIcEEEEiEEPvEENS_22__tree_node_destructorINS6_ISB_EEEEE7releaseB8ue170006Ev, symObjAddr: 0x3514, symBinAddr: 0x100004C08, symSize: 0x44 }
  - { offsetInCU: 0x19787, offset: 0x19787, size: 0x8, addend: 0x0, symName: __ZNSt3__110unique_ptrINS_11__tree_nodeINS_12__value_typeINS_12basic_stringIcNS_11char_traitsIcEENS_9allocatorIcEEEEiEEPvEENS_22__tree_node_destructorINS6_ISB_EEEEED1B8ue170006Ev, symObjAddr: 0x3558, symBinAddr: 0x100004C4C, symSize: 0x2C }
  - { offsetInCU: 0x197B1, offset: 0x197B1, size: 0x8, addend: 0x0, symName: __ZNSt3__115__tree_iteratorINS_12__value_typeINS_12basic_stringIcNS_11char_traitsIcEENS_9allocatorIcEEEEiEEPNS_11__tree_nodeIS8_PvEElEC1B8ue170006ESC_, symObjAddr: 0x3584, symBinAddr: 0x100004C78, symSize: 0x34 }
  - { offsetInCU: 0x197F0, offset: 0x197F0, size: 0x8, addend: 0x0, symName: __ZNSt3__14pairINS_15__tree_iteratorINS_12__value_typeINS_12basic_stringIcNS_11char_traitsIcEENS_9allocatorIcEEEEiEEPNS_11__tree_nodeIS9_PvEElEEbEC1B8ue170006ISE_RbLSB_0EEEOT_OT0_, symObjAddr: 0x35B8, symBinAddr: 0x100004CAC, symSize: 0x3C }
  - { offsetInCU: 0x1984E, offset: 0x1984E, size: 0x8, addend: 0x0, symName: __ZNKSt3__16__treeINS_12__value_typeINS_12basic_stringIcNS_11char_traitsIcEENS_9allocatorIcEEEEiEENS_19__map_value_compareIS7_S8_NS_4lessIS7_EELb1EEENS5_IS8_EEE6__rootB8ue170006Ev, symObjAddr: 0x35F4, symBinAddr: 0x100004CE8, symSize: 0x28 }
  - { offsetInCU: 0x19874, offset: 0x19874, size: 0x8, addend: 0x0, symName: __ZNKSt3__16__treeINS_12__value_typeINS_12basic_stringIcNS_11char_traitsIcEENS_9allocatorIcEEEEiEENS_19__map_value_compareIS7_S8_NS_4lessIS7_EELb1EEENS5_IS8_EEE10__root_ptrB8ue170006Ev, symObjAddr: 0x361C, symBinAddr: 0x100004D10, symSize: 0x24 }
  - { offsetInCU: 0x1989A, offset: 0x1989A, size: 0x8, addend: 0x0, symName: __ZNSt3__16__treeINS_12__value_typeINS_12basic_stringIcNS_11char_traitsIcEENS_9allocatorIcEEEEiEENS_19__map_value_compareIS7_S8_NS_4lessIS7_EELb1EEENS5_IS8_EEE10value_compB8ue170006Ev, symObjAddr: 0x3640, symBinAddr: 0x100004D34, symSize: 0x28 }
  - { offsetInCU: 0x198C0, offset: 0x198C0, size: 0x8, addend: 0x0, symName: __ZNKSt3__119__map_value_compareINS_12basic_stringIcNS_11char_traitsIcEENS_9allocatorIcEEEENS_12__value_typeIS6_iEENS_4lessIS6_EELb1EEclB8ue170006ERKS6_RKS8_, symObjAddr: 0x3668, symBinAddr: 0x100004D5C, symSize: 0x50 }
  - { offsetInCU: 0x19904, offset: 0x19904, size: 0x8, addend: 0x0, symName: __ZNKSt3__119__map_value_compareINS_12basic_stringIcNS_11char_traitsIcEENS_9allocatorIcEEEENS_12__value_typeIS6_iEENS_4lessIS6_EELb1EEclB8ue170006ERKS8_RKS6_, symObjAddr: 0x36B8, symBinAddr: 0x100004DAC, symSize: 0x48 }
  - { offsetInCU: 0x19948, offset: 0x19948, size: 0x8, addend: 0x0, symName: __ZNKSt3__16__treeINS_12__value_typeINS_12basic_stringIcNS_11char_traitsIcEENS_9allocatorIcEEEEiEENS_19__map_value_compareIS7_S8_NS_4lessIS7_EELb1EEENS5_IS8_EEE10__end_nodeB8ue170006Ev, symObjAddr: 0x3700, symBinAddr: 0x100004DF4, symSize: 0x2C }
  - { offsetInCU: 0x1996E, offset: 0x1996E, size: 0x8, addend: 0x0, symName: __ZNKSt3__117__compressed_pairINS_15__tree_end_nodeIPNS_16__tree_node_baseIPvEEEENS_9allocatorINS_11__tree_nodeINS_12__value_typeINS_12basic_stringIcNS_11char_traitsIcEENS7_IcEEEEiEES3_EEEEE5firstB8ue170006Ev, symObjAddr: 0x372C, symBinAddr: 0x100004E20, symSize: 0x24 }
  - { offsetInCU: 0x19994, offset: 0x19994, size: 0x8, addend: 0x0, symName: __ZNKSt3__122__compressed_pair_elemINS_15__tree_end_nodeIPNS_16__tree_node_baseIPvEEEELi0ELb0EE5__getB8ue170006Ev, symObjAddr: 0x3750, symBinAddr: 0x100004E44, symSize: 0x14 }
  - { offsetInCU: 0x199BA, offset: 0x199BA, size: 0x8, addend: 0x0, symName: __ZNSt3__117__compressed_pairImNS_19__map_value_compareINS_12basic_stringIcNS_11char_traitsIcEENS_9allocatorIcEEEENS_12__value_typeIS7_iEENS_4lessIS7_EELb1EEEE6secondB8ue170006Ev, symObjAddr: 0x3764, symBinAddr: 0x100004E58, symSize: 0x24 }
  - { offsetInCU: 0x199E0, offset: 0x199E0, size: 0x8, addend: 0x0, symName: __ZNSt3__122__compressed_pair_elemINS_19__map_value_compareINS_12basic_stringIcNS_11char_traitsIcEENS_9allocatorIcEEEENS_12__value_typeIS7_iEENS_4lessIS7_EELb1EEELi1ELb1EE5__getB8ue170006Ev, symObjAddr: 0x3788, symBinAddr: 0x100004E7C, symSize: 0x14 }
  - { offsetInCU: 0x19A06, offset: 0x19A06, size: 0x8, addend: 0x0, symName: __ZNKSt3__14lessINS_12basic_stringIcNS_11char_traitsIcEENS_9allocatorIcEEEEEclB8ue170006ERKS6_S9_, symObjAddr: 0x379C, symBinAddr: 0x100004E90, symSize: 0x34 }
  - { offsetInCU: 0x19A4A, offset: 0x19A4A, size: 0x8, addend: 0x0, symName: __ZNKSt3__112__value_typeINS_12basic_stringIcNS_11char_traitsIcEENS_9allocatorIcEEEEiE11__get_valueB8ue170006Ev, symObjAddr: 0x37D0, symBinAddr: 0x100004EC4, symSize: 0x14 }
  - { offsetInCU: 0x19A70, offset: 0x19A70, size: 0x8, addend: 0x0, symName: __ZNKSt3__112basic_stringIcNS_11char_traitsIcEENS_9allocatorIcEEE7compareB8ue170006ERKS5_, symObjAddr: 0x381C, symBinAddr: 0x100004F10, symSize: 0x4C }
  - { offsetInCU: 0x19AA7, offset: 0x19AA7, size: 0x8, addend: 0x0, symName: __ZNKSt3__112basic_stringIcNS_11char_traitsIcEENS_9allocatorIcEEE7compareINS_17basic_string_viewIcS2_EELi0EEEiRKT_, symObjAddr: 0x3868, symBinAddr: 0x100004F5C, symSize: 0x12C }
  - { offsetInCU: 0x19B2A, offset: 0x19B2A, size: 0x8, addend: 0x0, symName: __ZNKSt3__112basic_stringIcNS_11char_traitsIcEENS_9allocatorIcEEEcvNS_17basic_string_viewIcS2_EEB8ue170006Ev, symObjAddr: 0x3994, symBinAddr: 0x100005088, symSize: 0x50 }
  - { offsetInCU: 0x19B50, offset: 0x19B50, size: 0x8, addend: 0x0, symName: __ZNKSt3__117basic_string_viewIcNS_11char_traitsIcEEE4sizeB8ue170006Ev, symObjAddr: 0x39E4, symBinAddr: 0x1000050D8, symSize: 0x18 }
  - { offsetInCU: 0x19B76, offset: 0x19B76, size: 0x8, addend: 0x0, symName: __ZNSt3__111char_traitsIcE7compareB8ue170006EPKcS3_m, symObjAddr: 0x39FC, symBinAddr: 0x1000050F0, symSize: 0x34 }
  - { offsetInCU: 0x19BB5, offset: 0x19BB5, size: 0x8, addend: 0x0, symName: __ZNKSt3__112basic_stringIcNS_11char_traitsIcEENS_9allocatorIcEEE4dataB8ue170006Ev, symObjAddr: 0x3A30, symBinAddr: 0x100005124, symSize: 0x28 }
  - { offsetInCU: 0x19BDB, offset: 0x19BDB, size: 0x8, addend: 0x0, symName: __ZNKSt3__117basic_string_viewIcNS_11char_traitsIcEEE4dataB8ue170006Ev, symObjAddr: 0x3A58, symBinAddr: 0x10000514C, symSize: 0x18 }
  - { offsetInCU: 0x19C01, offset: 0x19C01, size: 0x8, addend: 0x0, symName: __ZNKSt3__112basic_stringIcNS_11char_traitsIcEENS_9allocatorIcEEE13__get_pointerB8ue170006Ev, symObjAddr: 0x3AB0, symBinAddr: 0x1000051A4, symSize: 0x54 }
  - { offsetInCU: 0x19C27, offset: 0x19C27, size: 0x8, addend: 0x0, symName: __ZNKSt3__112basic_stringIcNS_11char_traitsIcEENS_9allocatorIcEEE18__get_long_pointerB8ue170006Ev, symObjAddr: 0x3B04, symBinAddr: 0x1000051F8, symSize: 0x28 }
  - { offsetInCU: 0x19C4D, offset: 0x19C4D, size: 0x8, addend: 0x0, symName: __ZNKSt3__112basic_stringIcNS_11char_traitsIcEENS_9allocatorIcEEE19__get_short_pointerB8ue170006Ev, symObjAddr: 0x3B2C, symBinAddr: 0x100005220, symSize: 0x28 }
  - { offsetInCU: 0x19C73, offset: 0x19C73, size: 0x8, addend: 0x0, symName: __ZNSt3__114pointer_traitsIPKcE10pointer_toB8ue170006ERS1_, symObjAddr: 0x3B54, symBinAddr: 0x100005248, symSize: 0x14 }
  - { offsetInCU: 0x19CA0, offset: 0x19CA0, size: 0x8, addend: 0x0, symName: __ZNKSt3__16__lessIvvEclB8ue170006ImmEEbRKT_RKT0_, symObjAddr: 0x3BBC, symBinAddr: 0x1000052B0, symSize: 0x34 }
  - { offsetInCU: 0x19CF4, offset: 0x19CF4, size: 0x8, addend: 0x0, symName: __ZNSt3__117basic_string_viewIcNS_11char_traitsIcEEEC1B8ue170006EPKcm, symObjAddr: 0x3BF0, symBinAddr: 0x1000052E4, symSize: 0x3C }
  - { offsetInCU: 0x19D3C, offset: 0x19D3C, size: 0x8, addend: 0x0, symName: __ZNSt3__117basic_string_viewIcNS_11char_traitsIcEEEC2B8ue170006EPKcm, symObjAddr: 0x3C2C, symBinAddr: 0x100005320, symSize: 0x2C }
  - { offsetInCU: 0x19D84, offset: 0x19D84, size: 0x8, addend: 0x0, symName: __ZNSt3__16__treeINS_12__value_typeINS_12basic_stringIcNS_11char_traitsIcEENS_9allocatorIcEEEEiEENS_19__map_value_compareIS7_S8_NS_4lessIS7_EELb1EEENS5_IS8_EEE12__node_allocB8ue170006Ev, symObjAddr: 0x3C58, symBinAddr: 0x10000534C, symSize: 0x28 }
  - { offsetInCU: 0x19DAA, offset: 0x19DAA, size: 0x8, addend: 0x0, symName: __ZNSt3__116allocator_traitsINS_9allocatorINS_11__tree_nodeINS_12__value_typeINS_12basic_stringIcNS_11char_traitsIcEENS1_IcEEEEiEEPvEEEEE8allocateB8ue170006ERSC_m, symObjAddr: 0x3C80, symBinAddr: 0x100005374, symSize: 0x2C }
  - { offsetInCU: 0x19DDD, offset: 0x19DDD, size: 0x8, addend: 0x0, symName: __ZNSt3__122__tree_node_destructorINS_9allocatorINS_11__tree_nodeINS_12__value_typeINS_12basic_stringIcNS_11char_traitsIcEENS1_IcEEEEiEEPvEEEEEC1B8ue170006ERSC_b, symObjAddr: 0x3CAC, symBinAddr: 0x1000053A0, symSize: 0x48 }
  - { offsetInCU: 0x19E2B, offset: 0x19E2B, size: 0x8, addend: 0x0, symName: __ZNSt3__110unique_ptrINS_11__tree_nodeINS_12__value_typeINS_12basic_stringIcNS_11char_traitsIcEENS_9allocatorIcEEEEiEEPvEENS_22__tree_node_destructorINS6_ISB_EEEEEC1B8ue170006ILb1EvEEPSB_NS_16__dependent_typeINS_27__unique_ptr_deleter_sfinaeISE_EEXT_EE20__good_rval_ref_typeE, symObjAddr: 0x3CF4, symBinAddr: 0x1000053E8, symSize: 0x3C }
  - { offsetInCU: 0x19E7C, offset: 0x19E7C, size: 0x8, addend: 0x0, symName: __ZNSt3__116allocator_traitsINS_9allocatorINS_11__tree_nodeINS_12__value_typeINS_12basic_stringIcNS_11char_traitsIcEENS1_IcEEEEiEEPvEEEEE9constructB8ue170006INS_4pairIKS8_iEEJRKNS_21piecewise_construct_tENS_5tupleIJRSG_EEENSL_IJEEEEvEEvRSC_PT_DpOT0_, symObjAddr: 0x3D30, symBinAddr: 0x100005424, symSize: 0x44 }
  - { offsetInCU: 0x19EFB, offset: 0x19EFB, size: 0x8, addend: 0x0, symName: __ZNSt3__122__tree_key_value_typesINS_12__value_typeINS_12basic_stringIcNS_11char_traitsIcEENS_9allocatorIcEEEEiEEE9__get_ptrB8ue170006ERS8_, symObjAddr: 0x3D74, symBinAddr: 0x100005468, symSize: 0x24 }
  - { offsetInCU: 0x19F1F, offset: 0x19F1F, size: 0x8, addend: 0x0, symName: __ZNKSt3__110unique_ptrINS_11__tree_nodeINS_12__value_typeINS_12basic_stringIcNS_11char_traitsIcEENS_9allocatorIcEEEEiEEPvEENS_22__tree_node_destructorINS6_ISB_EEEEEptB8ue170006Ev, symObjAddr: 0x3D98, symBinAddr: 0x10000548C, symSize: 0x28 }
  - { offsetInCU: 0x19F45, offset: 0x19F45, size: 0x8, addend: 0x0, symName: __ZNSt3__110unique_ptrINS_11__tree_nodeINS_12__value_typeINS_12basic_stringIcNS_11char_traitsIcEENS_9allocatorIcEEEEiEEPvEENS_22__tree_node_destructorINS6_ISB_EEEEE11get_deleterB8ue170006Ev, symObjAddr: 0x3DC0, symBinAddr: 0x1000054B4, symSize: 0x24 }
  - { offsetInCU: 0x19F6B, offset: 0x19F6B, size: 0x8, addend: 0x0, symName: __ZNSt3__117__compressed_pairINS_15__tree_end_nodeIPNS_16__tree_node_baseIPvEEEENS_9allocatorINS_11__tree_nodeINS_12__value_typeINS_12basic_stringIcNS_11char_traitsIcEENS7_IcEEEEiEES3_EEEEE6secondB8ue170006Ev, symObjAddr: 0x3DE4, symBinAddr: 0x1000054D8, symSize: 0x24 }
  - { offsetInCU: 0x19F91, offset: 0x19F91, size: 0x8, addend: 0x0, symName: __ZNSt3__122__compressed_pair_elemINS_9allocatorINS_11__tree_nodeINS_12__value_typeINS_12basic_stringIcNS_11char_traitsIcEENS1_IcEEEEiEEPvEEEELi1ELb1EE5__getB8ue170006Ev, symObjAddr: 0x3E08, symBinAddr: 0x1000054FC, symSize: 0x14 }
  - { offsetInCU: 0x19FB7, offset: 0x19FB7, size: 0x8, addend: 0x0, symName: __ZNSt3__19allocatorINS_11__tree_nodeINS_12__value_typeINS_12basic_stringIcNS_11char_traitsIcEENS0_IcEEEEiEEPvEEE8allocateB8ue170006Em, symObjAddr: 0x3E1C, symBinAddr: 0x100005510, symSize: 0x58 }
  - { offsetInCU: 0x19FF6, offset: 0x19FF6, size: 0x8, addend: 0x0, symName: __ZNSt3__116allocator_traitsINS_9allocatorINS_11__tree_nodeINS_12__value_typeINS_12basic_stringIcNS_11char_traitsIcEENS1_IcEEEEiEEPvEEEEE8max_sizeB8ue170006ISC_vEEmRKSC_, symObjAddr: 0x3E74, symBinAddr: 0x100005568, symSize: 0x24 }
  - { offsetInCU: 0x1A024, offset: 0x1A024, size: 0x8, addend: 0x0, symName: __ZNKSt3__19allocatorINS_11__tree_nodeINS_12__value_typeINS_12basic_stringIcNS_11char_traitsIcEENS0_IcEEEEiEEPvEEE8max_sizeB8ue170006Ev, symObjAddr: 0x3EF4, symBinAddr: 0x1000055E8, symSize: 0x14 }
  - { offsetInCU: 0x1A04A, offset: 0x1A04A, size: 0x8, addend: 0x0, symName: __ZNSt3__122__tree_node_destructorINS_9allocatorINS_11__tree_nodeINS_12__value_typeINS_12basic_stringIcNS_11char_traitsIcEENS1_IcEEEEiEEPvEEEEEC2B8ue170006ERSC_b, symObjAddr: 0x3F2C, symBinAddr: 0x100005620, symSize: 0x38 }
  - { offsetInCU: 0x1A092, offset: 0x1A092, size: 0x8, addend: 0x0, symName: __ZNSt3__110unique_ptrINS_11__tree_nodeINS_12__value_typeINS_12basic_stringIcNS_11char_traitsIcEENS_9allocatorIcEEEEiEEPvEENS_22__tree_node_destructorINS6_ISB_EEEEEC2B8ue170006ILb1EvEEPSB_NS_16__dependent_typeINS_27__unique_ptr_deleter_sfinaeISE_EEXT_EE20__good_rval_ref_typeE, symObjAddr: 0x3F64, symBinAddr: 0x100005658, symSize: 0x48 }
  - { offsetInCU: 0x1A0E3, offset: 0x1A0E3, size: 0x8, addend: 0x0, symName: __ZNSt3__117__compressed_pairIPNS_11__tree_nodeINS_12__value_typeINS_12basic_stringIcNS_11char_traitsIcEENS_9allocatorIcEEEEiEEPvEENS_22__tree_node_destructorINS6_ISB_EEEEEC1B8ue170006IRSC_SF_EEOT_OT0_, symObjAddr: 0x3FAC, symBinAddr: 0x1000056A0, symSize: 0x3C }
  - { offsetInCU: 0x1A13B, offset: 0x1A13B, size: 0x8, addend: 0x0, symName: __ZNSt3__117__compressed_pairIPNS_11__tree_nodeINS_12__value_typeINS_12basic_stringIcNS_11char_traitsIcEENS_9allocatorIcEEEEiEEPvEENS_22__tree_node_destructorINS6_ISB_EEEEEC2B8ue170006IRSC_SF_EEOT_OT0_, symObjAddr: 0x3FE8, symBinAddr: 0x1000056DC, symSize: 0x48 }
  - { offsetInCU: 0x1A193, offset: 0x1A193, size: 0x8, addend: 0x0, symName: __ZNSt3__122__compressed_pair_elemIPNS_11__tree_nodeINS_12__value_typeINS_12basic_stringIcNS_11char_traitsIcEENS_9allocatorIcEEEEiEEPvEELi0ELb0EEC2B8ue170006IRSC_vEEOT_, symObjAddr: 0x4030, symBinAddr: 0x100005724, symSize: 0x24 }
  - { offsetInCU: 0x1A1D5, offset: 0x1A1D5, size: 0x8, addend: 0x0, symName: __ZNSt3__122__compressed_pair_elemINS_22__tree_node_destructorINS_9allocatorINS_11__tree_nodeINS_12__value_typeINS_12basic_stringIcNS_11char_traitsIcEENS2_IcEEEEiEEPvEEEEEELi1ELb0EEC2B8ue170006ISE_vEEOT_, symObjAddr: 0x4054, symBinAddr: 0x100005748, symSize: 0x24 }
  - { offsetInCU: 0x1A217, offset: 0x1A217, size: 0x8, addend: 0x0, symName: __ZNSt3__19allocatorINS_11__tree_nodeINS_12__value_typeINS_12basic_stringIcNS_11char_traitsIcEENS0_IcEEEEiEEPvEEE9constructB8ue170006INS_4pairIKS7_iEEJRKNS_21piecewise_construct_tENS_5tupleIJRSE_EEENSJ_IJEEEEEEvPT_DpOT0_, symObjAddr: 0x4078, symBinAddr: 0x10000576C, symSize: 0x44 }
  - { offsetInCU: 0x1A293, offset: 0x1A293, size: 0x8, addend: 0x0, symName: __ZNSt3__14pairIKNS_12basic_stringIcNS_11char_traitsIcEENS_9allocatorIcEEEEiEC1B8ue170006IJRS7_EJEEENS_21piecewise_construct_tENS_5tupleIJDpT_EEENSC_IJDpT0_EEE, symObjAddr: 0x40BC, symBinAddr: 0x1000057B0, symSize: 0x3C }
  - { offsetInCU: 0x1A2FA, offset: 0x1A2FA, size: 0x8, addend: 0x0, symName: __ZNSt3__14pairIKNS_12basic_stringIcNS_11char_traitsIcEENS_9allocatorIcEEEEiEC1B8ue170006IJRS7_EJEJLm0EEJEEENS_21piecewise_construct_tERNS_5tupleIJDpT_EEERNSC_IJDpT0_EEENS_15__tuple_indicesIJXspT1_EEEENSL_IJXspT2_EEEE, symObjAddr: 0x40F8, symBinAddr: 0x1000057EC, symSize: 0x3C }
  - { offsetInCU: 0x1A387, offset: 0x1A387, size: 0x8, addend: 0x0, symName: __ZNSt3__14pairIKNS_12basic_stringIcNS_11char_traitsIcEENS_9allocatorIcEEEEiEC2B8ue170006IJRS7_EJEJLm0EEJEEENS_21piecewise_construct_tERNS_5tupleIJDpT_EEERNSC_IJDpT0_EEENS_15__tuple_indicesIJXspT1_EEEENSL_IJXspT2_EEEE, symObjAddr: 0x4134, symBinAddr: 0x100005828, symSize: 0x48 }
  - { offsetInCU: 0x1A414, offset: 0x1A414, size: 0x8, addend: 0x0, symName: __ZNSt3__112__tuple_leafILm0ERKNS_12basic_stringIcNS_11char_traitsIcEENS_9allocatorIcEEEELb0EE3getB8ue170006Ev, symObjAddr: 0x41A0, symBinAddr: 0x100005894, symSize: 0x18 }
  - { offsetInCU: 0x1A43A, offset: 0x1A43A, size: 0x8, addend: 0x0, symName: __ZNKSt3__117__compressed_pairIPNS_11__tree_nodeINS_12__value_typeINS_12basic_stringIcNS_11char_traitsIcEENS_9allocatorIcEEEEiEEPvEENS_22__tree_node_destructorINS6_ISB_EEEEE5firstB8ue170006Ev, symObjAddr: 0x41B8, symBinAddr: 0x1000058AC, symSize: 0x24 }
  - { offsetInCU: 0x1A460, offset: 0x1A460, size: 0x8, addend: 0x0, symName: __ZNKSt3__122__compressed_pair_elemIPNS_11__tree_nodeINS_12__value_typeINS_12basic_stringIcNS_11char_traitsIcEENS_9allocatorIcEEEEiEEPvEELi0ELb0EE5__getB8ue170006Ev, symObjAddr: 0x41DC, symBinAddr: 0x1000058D0, symSize: 0x14 }
  - { offsetInCU: 0x1A486, offset: 0x1A486, size: 0x8, addend: 0x0, symName: __ZNSt3__117__compressed_pairIPNS_11__tree_nodeINS_12__value_typeINS_12basic_stringIcNS_11char_traitsIcEENS_9allocatorIcEEEEiEEPvEENS_22__tree_node_destructorINS6_ISB_EEEEE6secondB8ue170006Ev, symObjAddr: 0x41F0, symBinAddr: 0x1000058E4, symSize: 0x28 }
  - { offsetInCU: 0x1A4AC, offset: 0x1A4AC, size: 0x8, addend: 0x0, symName: __ZNSt3__122__compressed_pair_elemINS_22__tree_node_destructorINS_9allocatorINS_11__tree_nodeINS_12__value_typeINS_12basic_stringIcNS_11char_traitsIcEENS2_IcEEEEiEEPvEEEEEELi1ELb0EE5__getB8ue170006Ev, symObjAddr: 0x4218, symBinAddr: 0x10000590C, symSize: 0x14 }
  - { offsetInCU: 0x1A4D2, offset: 0x1A4D2, size: 0x8, addend: 0x0, symName: __ZNSt3__16__treeINS_12__value_typeINS_12basic_stringIcNS_11char_traitsIcEENS_9allocatorIcEEEEiEENS_19__map_value_compareIS7_S8_NS_4lessIS7_EELb1EEENS5_IS8_EEE4sizeB8ue170006Ev, symObjAddr: 0x4558, symBinAddr: 0x100005C4C, symSize: 0x28 }
  - { offsetInCU: 0x1A4F8, offset: 0x1A4F8, size: 0x8, addend: 0x0, symName: __ZNKSt3__116__tree_node_baseIPvE15__parent_unsafeB8ue170006Ev, symObjAddr: 0x4580, symBinAddr: 0x100005C74, symSize: 0x18 }
  - { offsetInCU: 0x1A51E, offset: 0x1A51E, size: 0x8, addend: 0x0, symName: __ZNSt3__116__tree_node_baseIPvE12__set_parentB8ue170006EPS2_, symObjAddr: 0x4768, symBinAddr: 0x100005E5C, symSize: 0x20 }
  - { offsetInCU: 0x1A553, offset: 0x1A553, size: 0x8, addend: 0x0, symName: __ZNSt3__117__compressed_pairImNS_19__map_value_compareINS_12basic_stringIcNS_11char_traitsIcEENS_9allocatorIcEEEENS_12__value_typeIS7_iEENS_4lessIS7_EELb1EEEE5firstB8ue170006Ev, symObjAddr: 0x4788, symBinAddr: 0x100005E7C, symSize: 0x24 }
  - { offsetInCU: 0x1A579, offset: 0x1A579, size: 0x8, addend: 0x0, symName: __ZNSt3__122__compressed_pair_elemImLi0ELb0EE5__getB8ue170006Ev, symObjAddr: 0x47AC, symBinAddr: 0x100005EA0, symSize: 0x14 }
  - { offsetInCU: 0x1A59F, offset: 0x1A59F, size: 0x8, addend: 0x0, symName: __ZNSt3__117__compressed_pairIPNS_11__tree_nodeINS_12__value_typeINS_12basic_stringIcNS_11char_traitsIcEENS_9allocatorIcEEEEiEEPvEENS_22__tree_node_destructorINS6_ISB_EEEEE5firstB8ue170006Ev, symObjAddr: 0x47C0, symBinAddr: 0x100005EB4, symSize: 0x24 }
  - { offsetInCU: 0x1A5C5, offset: 0x1A5C5, size: 0x8, addend: 0x0, symName: __ZNSt3__122__compressed_pair_elemIPNS_11__tree_nodeINS_12__value_typeINS_12basic_stringIcNS_11char_traitsIcEENS_9allocatorIcEEEEiEEPvEELi0ELb0EE5__getB8ue170006Ev, symObjAddr: 0x47E4, symBinAddr: 0x100005ED8, symSize: 0x14 }
  - { offsetInCU: 0x1A5EB, offset: 0x1A5EB, size: 0x8, addend: 0x0, symName: __ZNSt3__110unique_ptrINS_11__tree_nodeINS_12__value_typeINS_12basic_stringIcNS_11char_traitsIcEENS_9allocatorIcEEEEiEEPvEENS_22__tree_node_destructorINS6_ISB_EEEEED2B8ue170006Ev, symObjAddr: 0x47F8, symBinAddr: 0x100005EEC, symSize: 0x30 }
  - { offsetInCU: 0x1A615, offset: 0x1A615, size: 0x8, addend: 0x0, symName: __ZNSt3__110unique_ptrINS_11__tree_nodeINS_12__value_typeINS_12basic_stringIcNS_11char_traitsIcEENS_9allocatorIcEEEEiEEPvEENS_22__tree_node_destructorINS6_ISB_EEEEE5resetB8ue170006EPSB_, symObjAddr: 0x4828, symBinAddr: 0x100005F1C, symSize: 0x78 }
  - { offsetInCU: 0x1A659, offset: 0x1A659, size: 0x8, addend: 0x0, symName: __ZNSt3__122__tree_node_destructorINS_9allocatorINS_11__tree_nodeINS_12__value_typeINS_12basic_stringIcNS_11char_traitsIcEENS1_IcEEEEiEEPvEEEEEclB8ue170006EPSB_, symObjAddr: 0x48A0, symBinAddr: 0x100005F94, symSize: 0x98 }
  - { offsetInCU: 0x1A68E, offset: 0x1A68E, size: 0x8, addend: 0x0, symName: __ZNSt3__116allocator_traitsINS_9allocatorINS_11__tree_nodeINS_12__value_typeINS_12basic_stringIcNS_11char_traitsIcEENS1_IcEEEEiEEPvEEEEE7destroyB8ue170006INS_4pairIKS8_iEEvvEEvRSC_PT_, symObjAddr: 0x4938, symBinAddr: 0x10000602C, symSize: 0x28 }
  - { offsetInCU: 0x1A6C8, offset: 0x1A6C8, size: 0x8, addend: 0x0, symName: __ZNSt3__116allocator_traitsINS_9allocatorINS_11__tree_nodeINS_12__value_typeINS_12basic_stringIcNS_11char_traitsIcEENS1_IcEEEEiEEPvEEEEE10deallocateB8ue170006ERSC_PSB_m, symObjAddr: 0x4960, symBinAddr: 0x100006054, symSize: 0x34 }
  - { offsetInCU: 0x1A70A, offset: 0x1A70A, size: 0x8, addend: 0x0, symName: __ZNSt3__14pairIKNS_12basic_stringIcNS_11char_traitsIcEENS_9allocatorIcEEEEiED1Ev, symObjAddr: 0x4994, symBinAddr: 0x100006088, symSize: 0x2C }
  - { offsetInCU: 0x1A736, offset: 0x1A736, size: 0x8, addend: 0x0, symName: __ZNSt3__14pairIKNS_12basic_stringIcNS_11char_traitsIcEENS_9allocatorIcEEEEiED2Ev, symObjAddr: 0x49C0, symBinAddr: 0x1000060B4, symSize: 0x2C }
  - { offsetInCU: 0x1A762, offset: 0x1A762, size: 0x8, addend: 0x0, symName: __ZNSt3__19allocatorINS_11__tree_nodeINS_12__value_typeINS_12basic_stringIcNS_11char_traitsIcEENS0_IcEEEEiEEPvEEE10deallocateB8ue170006EPSA_m, symObjAddr: 0x49EC, symBinAddr: 0x1000060E0, symSize: 0x40 }
  - { offsetInCU: 0x1A7A4, offset: 0x1A7A4, size: 0x8, addend: 0x0, symName: __ZNSt3__115__tree_iteratorINS_12__value_typeINS_12basic_stringIcNS_11char_traitsIcEENS_9allocatorIcEEEEiEEPNS_11__tree_nodeIS8_PvEElEC2B8ue170006ESC_, symObjAddr: 0x4AA8, symBinAddr: 0x10000619C, symSize: 0x20 }
  - { offsetInCU: 0x1A7DD, offset: 0x1A7DD, size: 0x8, addend: 0x0, symName: __ZNSt3__14pairINS_15__tree_iteratorINS_12__value_typeINS_12basic_stringIcNS_11char_traitsIcEENS_9allocatorIcEEEEiEEPNS_11__tree_nodeIS9_PvEElEEbEC2B8ue170006ISE_RbLSB_0EEEOT_OT0_, symObjAddr: 0x4AC8, symBinAddr: 0x1000061BC, symSize: 0x38 }
  - { offsetInCU: 0x1A83B, offset: 0x1A83B, size: 0x8, addend: 0x0, symName: __ZNSt3__15tupleIJRKNS_12basic_stringIcNS_11char_traitsIcEENS_9allocatorIcEEEEEEC1B8ue170006INS_4_AndELi0EEES8_, symObjAddr: 0x4B00, symBinAddr: 0x1000061F4, symSize: 0x34 }
  - { offsetInCU: 0x1A883, offset: 0x1A883, size: 0x8, addend: 0x0, symName: __ZNSt3__15tupleIJRKNS_12basic_stringIcNS_11char_traitsIcEENS_9allocatorIcEEEEEEC2B8ue170006INS_4_AndELi0EEES8_, symObjAddr: 0x4B34, symBinAddr: 0x100006228, symSize: 0x34 }
  - { offsetInCU: 0x1A8CB, offset: 0x1A8CB, size: 0x8, addend: 0x0, symName: __ZNSt3__112__tuple_implINS_15__tuple_indicesIJLm0EEEEJRKNS_12basic_stringIcNS_11char_traitsIcEENS_9allocatorIcEEEEEEC1B8ue170006IJLm0EEJSA_EJEJEJSA_EEENS1_IJXspT_EEEENS_13__tuple_typesIJDpT0_EEENS1_IJXspT1_EEEENSE_IJDpT2_EEEDpOT3_, symObjAddr: 0x4B68, symBinAddr: 0x10000625C, symSize: 0x34 }
  - { offsetInCU: 0x1A95C, offset: 0x1A95C, size: 0x8, addend: 0x0, symName: __ZNSt3__112__tuple_implINS_15__tuple_indicesIJLm0EEEEJRKNS_12basic_stringIcNS_11char_traitsIcEENS_9allocatorIcEEEEEEC2B8ue170006IJLm0EEJSA_EJEJEJSA_EEENS1_IJXspT_EEEENS_13__tuple_typesIJDpT0_EEENS1_IJXspT1_EEEENSE_IJDpT2_EEEDpOT3_, symObjAddr: 0x4B9C, symBinAddr: 0x100006290, symSize: 0x34 }
  - { offsetInCU: 0x1A9ED, offset: 0x1A9ED, size: 0x8, addend: 0x0, symName: __ZNSt3__112__tuple_leafILm0ERKNS_12basic_stringIcNS_11char_traitsIcEENS_9allocatorIcEEEELb0EEC2B8ue170006IS8_vEEOT_, symObjAddr: 0x4BD0, symBinAddr: 0x1000062C4, symSize: 0x20 }
  - { offsetInCU: 0x1AA30, offset: 0x1AA30, size: 0x8, addend: 0x0, symName: __ZNSt3__114pointer_traitsIPNS_12__value_typeINS_12basic_stringIcNS_11char_traitsIcEENS_9allocatorIcEEEEiEEE10pointer_toB8ue170006ERS8_, symObjAddr: 0x4BF0, symBinAddr: 0x1000062E4, symSize: 0x14 }
  - { offsetInCU: 0x1AA53, offset: 0x1AA53, size: 0x8, addend: 0x0, symName: __ZNKSt3__115__tree_iteratorINS_12__value_typeINS_12basic_stringIcNS_11char_traitsIcEENS_9allocatorIcEEEEiEEPNS_11__tree_nodeIS8_PvEElE8__get_npB8ue170006Ev, symObjAddr: 0x4C04, symBinAddr: 0x1000062F8, symSize: 0x18 }
  - { offsetInCU: 0x1AA79, offset: 0x1AA79, size: 0x8, addend: 0x0, symName: __ZNSt3__16vectorINS_12basic_stringIcNS_11char_traitsIcEENS_9allocatorIcEEEENS4_IS6_EEE9__end_capB8ue170006Ev, symObjAddr: 0x4C1C, symBinAddr: 0x100006310, symSize: 0x28 }
  - { offsetInCU: 0x1AA9F, offset: 0x1AA9F, size: 0x8, addend: 0x0, symName: __ZNSt3__16vectorINS_12basic_stringIcNS_11char_traitsIcEENS_9allocatorIcEEEENS4_IS6_EEE22__construct_one_at_endB8ue170006IJRKS6_EEEvDpOT_, symObjAddr: 0x4C44, symBinAddr: 0x100006338, symSize: 0x90 }
  - { offsetInCU: 0x1AAEE, offset: 0x1AAEE, size: 0x8, addend: 0x0, symName: __ZNSt3__16vectorINS_12basic_stringIcNS_11char_traitsIcEENS_9allocatorIcEEEENS4_IS6_EEE21__push_back_slow_pathIRKS6_EEvOT_, symObjAddr: 0x4CD4, symBinAddr: 0x1000063C8, symSize: 0xD8 }
  - { offsetInCU: 0x1AB4C, offset: 0x1AB4C, size: 0x8, addend: 0x0, symName: __ZNSt3__117__compressed_pairIPNS_12basic_stringIcNS_11char_traitsIcEENS_9allocatorIcEEEENS4_IS6_EEE5firstB8ue170006Ev, symObjAddr: 0x4DAC, symBinAddr: 0x1000064A0, symSize: 0x24 }
  - { offsetInCU: 0x1AB72, offset: 0x1AB72, size: 0x8, addend: 0x0, symName: __ZNSt3__122__compressed_pair_elemIPNS_12basic_stringIcNS_11char_traitsIcEENS_9allocatorIcEEEELi0ELb0EE5__getB8ue170006Ev, symObjAddr: 0x4DD0, symBinAddr: 0x1000064C4, symSize: 0x14 }
  - { offsetInCU: 0x1ABB3, offset: 0x1ABB3, size: 0x8, addend: 0x0, symName: __ZNSt3__16vectorINS_12basic_stringIcNS_11char_traitsIcEENS_9allocatorIcEEEENS4_IS6_EEE21_ConstructTransactionC1B8ue170006ERS8_m, symObjAddr: 0x4DE4, symBinAddr: 0x1000064D8, symSize: 0x3C }
  - { offsetInCU: 0x1ABFB, offset: 0x1ABFB, size: 0x8, addend: 0x0, symName: __ZNSt3__116allocator_traitsINS_9allocatorINS_12basic_stringIcNS_11char_traitsIcEENS1_IcEEEEEEE9constructB8ue170006IS6_JRKS6_EvEEvRS7_PT_DpOT0_, symObjAddr: 0x4E20, symBinAddr: 0x100006514, symSize: 0x34 }
  - { offsetInCU: 0x1AC52, offset: 0x1AC52, size: 0x8, addend: 0x0, symName: __ZNSt3__16vectorINS_12basic_stringIcNS_11char_traitsIcEENS_9allocatorIcEEEENS4_IS6_EEE7__allocB8ue170006Ev, symObjAddr: 0x4E54, symBinAddr: 0x100006548, symSize: 0x28 }
  - { offsetInCU: 0x1AC78, offset: 0x1AC78, size: 0x8, addend: 0x0, symName: __ZNSt3__16vectorINS_12basic_stringIcNS_11char_traitsIcEENS_9allocatorIcEEEENS4_IS6_EEE21_ConstructTransactionD1B8ue170006Ev, symObjAddr: 0x4E90, symBinAddr: 0x100006584, symSize: 0x2C }
  - { offsetInCU: 0x1ACA2, offset: 0x1ACA2, size: 0x8, addend: 0x0, symName: __ZNSt3__16vectorINS_12basic_stringIcNS_11char_traitsIcEENS_9allocatorIcEEEENS4_IS6_EEE21_ConstructTransactionC2B8ue170006ERS8_m, symObjAddr: 0x4EBC, symBinAddr: 0x1000065B0, symSize: 0x4C }
  - { offsetInCU: 0x1ACEA, offset: 0x1ACEA, size: 0x8, addend: 0x0, symName: __ZNSt3__19allocatorINS_12basic_stringIcNS_11char_traitsIcEENS0_IcEEEEE9constructB8ue170006IS5_JRKS5_EEEvPT_DpOT0_, symObjAddr: 0x4F08, symBinAddr: 0x1000065FC, symSize: 0x30 }
  - { offsetInCU: 0x1AD40, offset: 0x1AD40, size: 0x8, addend: 0x0, symName: __ZNSt3__117__compressed_pairIPNS_12basic_stringIcNS_11char_traitsIcEENS_9allocatorIcEEEENS4_IS6_EEE6secondB8ue170006Ev, symObjAddr: 0x4F38, symBinAddr: 0x10000662C, symSize: 0x24 }
  - { offsetInCU: 0x1AD66, offset: 0x1AD66, size: 0x8, addend: 0x0, symName: __ZNSt3__122__compressed_pair_elemINS_9allocatorINS_12basic_stringIcNS_11char_traitsIcEENS1_IcEEEEEELi1ELb1EE5__getB8ue170006Ev, symObjAddr: 0x4F5C, symBinAddr: 0x100006650, symSize: 0x14 }
  - { offsetInCU: 0x1AD8C, offset: 0x1AD8C, size: 0x8, addend: 0x0, symName: __ZNSt3__16vectorINS_12basic_stringIcNS_11char_traitsIcEENS_9allocatorIcEEEENS4_IS6_EEE21_ConstructTransactionD2B8ue170006Ev, symObjAddr: 0x4F70, symBinAddr: 0x100006664, symSize: 0x20 }
  - { offsetInCU: 0x1ADB6, offset: 0x1ADB6, size: 0x8, addend: 0x0, symName: __ZNKSt3__16vectorINS_12basic_stringIcNS_11char_traitsIcEENS_9allocatorIcEEEENS4_IS6_EEE11__recommendB8ue170006Em, symObjAddr: 0x4F90, symBinAddr: 0x100006684, symSize: 0xB4 }
  - { offsetInCU: 0x1AE0B, offset: 0x1AE0B, size: 0x8, addend: 0x0, symName: __ZNKSt3__16vectorINS_12basic_stringIcNS_11char_traitsIcEENS_9allocatorIcEEEENS4_IS6_EEE4sizeB8ue170006Ev, symObjAddr: 0x5044, symBinAddr: 0x100006738, symSize: 0x28 }
  - { offsetInCU: 0x1AE31, offset: 0x1AE31, size: 0x8, addend: 0x0, symName: __ZNSt3__114__split_bufferINS_12basic_stringIcNS_11char_traitsIcEENS_9allocatorIcEEEERNS4_IS6_EEEC1EmmS8_, symObjAddr: 0x506C, symBinAddr: 0x100006760, symSize: 0x44 }
  - { offsetInCU: 0x1AE87, offset: 0x1AE87, size: 0x8, addend: 0x0, symName: __ZNSt3__114__split_bufferINS_12basic_stringIcNS_11char_traitsIcEENS_9allocatorIcEEEERNS4_IS6_EEED1Ev, symObjAddr: 0x51C0, symBinAddr: 0x1000068B4, symSize: 0x2C }
  - { offsetInCU: 0x1AEB3, offset: 0x1AEB3, size: 0x8, addend: 0x0, symName: __ZNKSt3__16vectorINS_12basic_stringIcNS_11char_traitsIcEENS_9allocatorIcEEEENS4_IS6_EEE8max_sizeEv, symObjAddr: 0x51EC, symBinAddr: 0x1000068E0, symSize: 0x60 }
  - { offsetInCU: 0x1AEDB, offset: 0x1AEDB, size: 0x8, addend: 0x0, symName: __ZNKSt3__16vectorINS_12basic_stringIcNS_11char_traitsIcEENS_9allocatorIcEEEENS4_IS6_EEE20__throw_length_errorB8ue170006Ev, symObjAddr: 0x524C, symBinAddr: 0x100006940, symSize: 0x1C }
  - { offsetInCU: 0x1AF01, offset: 0x1AF01, size: 0x8, addend: 0x0, symName: __ZNKSt3__16vectorINS_12basic_stringIcNS_11char_traitsIcEENS_9allocatorIcEEEENS4_IS6_EEE8capacityB8ue170006Ev, symObjAddr: 0x5268, symBinAddr: 0x10000695C, symSize: 0x40 }
  - { offsetInCU: 0x1AF32, offset: 0x1AF32, size: 0x8, addend: 0x0, symName: __ZNSt3__116allocator_traitsINS_9allocatorINS_12basic_stringIcNS_11char_traitsIcEENS1_IcEEEEEEE8max_sizeB8ue170006IS7_vEEmRKS7_, symObjAddr: 0x52D4, symBinAddr: 0x1000069C8, symSize: 0x24 }
  - { offsetInCU: 0x1AF60, offset: 0x1AF60, size: 0x8, addend: 0x0, symName: __ZNKSt3__16vectorINS_12basic_stringIcNS_11char_traitsIcEENS_9allocatorIcEEEENS4_IS6_EEE7__allocB8ue170006Ev, symObjAddr: 0x52F8, symBinAddr: 0x1000069EC, symSize: 0x28 }
  - { offsetInCU: 0x1AF86, offset: 0x1AF86, size: 0x8, addend: 0x0, symName: __ZNKSt3__19allocatorINS_12basic_stringIcNS_11char_traitsIcEENS0_IcEEEEE8max_sizeB8ue170006Ev, symObjAddr: 0x5320, symBinAddr: 0x100006A14, symSize: 0x18 }
  - { offsetInCU: 0x1AFAC, offset: 0x1AFAC, size: 0x8, addend: 0x0, symName: __ZNKSt3__117__compressed_pairIPNS_12basic_stringIcNS_11char_traitsIcEENS_9allocatorIcEEEENS4_IS6_EEE6secondB8ue170006Ev, symObjAddr: 0x5338, symBinAddr: 0x100006A2C, symSize: 0x24 }
  - { offsetInCU: 0x1AFD2, offset: 0x1AFD2, size: 0x8, addend: 0x0, symName: __ZNKSt3__122__compressed_pair_elemINS_9allocatorINS_12basic_stringIcNS_11char_traitsIcEENS1_IcEEEEEELi1ELb1EE5__getB8ue170006Ev, symObjAddr: 0x535C, symBinAddr: 0x100006A50, symSize: 0x14 }
  - { offsetInCU: 0x1AFF8, offset: 0x1AFF8, size: 0x8, addend: 0x0, symName: __ZNSt12length_errorC1B8ue170006EPKc, symObjAddr: 0x53D4, symBinAddr: 0x100006AC8, symSize: 0x34 }
  - { offsetInCU: 0x1B030, offset: 0x1B030, size: 0x8, addend: 0x0, symName: __ZNSt12length_errorC2B8ue170006EPKc, symObjAddr: 0x5408, symBinAddr: 0x100006AFC, symSize: 0x4C }
  - { offsetInCU: 0x1B068, offset: 0x1B068, size: 0x8, addend: 0x0, symName: __ZNKSt3__16vectorINS_12basic_stringIcNS_11char_traitsIcEENS_9allocatorIcEEEENS4_IS6_EEE9__end_capB8ue170006Ev, symObjAddr: 0x5454, symBinAddr: 0x100006B48, symSize: 0x28 }
  - { offsetInCU: 0x1B08E, offset: 0x1B08E, size: 0x8, addend: 0x0, symName: __ZNKSt3__117__compressed_pairIPNS_12basic_stringIcNS_11char_traitsIcEENS_9allocatorIcEEEENS4_IS6_EEE5firstB8ue170006Ev, symObjAddr: 0x547C, symBinAddr: 0x100006B70, symSize: 0x24 }
  - { offsetInCU: 0x1B0B4, offset: 0x1B0B4, size: 0x8, addend: 0x0, symName: __ZNKSt3__122__compressed_pair_elemIPNS_12basic_stringIcNS_11char_traitsIcEENS_9allocatorIcEEEELi0ELb0EE5__getB8ue170006Ev, symObjAddr: 0x54A0, symBinAddr: 0x100006B94, symSize: 0x14 }
  - { offsetInCU: 0x1B0DA, offset: 0x1B0DA, size: 0x8, addend: 0x0, symName: __ZNSt3__114__split_bufferINS_12basic_stringIcNS_11char_traitsIcEENS_9allocatorIcEEEERNS4_IS6_EEEC2EmmS8_, symObjAddr: 0x5508, symBinAddr: 0x100006BFC, symSize: 0xE0 }
  - { offsetInCU: 0x1B14D, offset: 0x1B14D, size: 0x8, addend: 0x0, symName: __ZNSt3__117__compressed_pairIPNS_12basic_stringIcNS_11char_traitsIcEENS_9allocatorIcEEEERNS4_IS6_EEEC1B8ue170006IDnS9_EEOT_OT0_, symObjAddr: 0x55E8, symBinAddr: 0x100006CDC, symSize: 0x3C }
  - { offsetInCU: 0x1B1A5, offset: 0x1B1A5, size: 0x8, addend: 0x0, symName: __ZNSt3__114__split_bufferINS_12basic_stringIcNS_11char_traitsIcEENS_9allocatorIcEEEERNS4_IS6_EEE7__allocB8ue170006Ev, symObjAddr: 0x5664, symBinAddr: 0x100006D58, symSize: 0x28 }
  - { offsetInCU: 0x1B1CB, offset: 0x1B1CB, size: 0x8, addend: 0x0, symName: __ZNSt3__114__split_bufferINS_12basic_stringIcNS_11char_traitsIcEENS_9allocatorIcEEEERNS4_IS6_EEE9__end_capB8ue170006Ev, symObjAddr: 0x568C, symBinAddr: 0x100006D80, symSize: 0x28 }
  - { offsetInCU: 0x1B1F1, offset: 0x1B1F1, size: 0x8, addend: 0x0, symName: __ZNSt3__117__compressed_pairIPNS_12basic_stringIcNS_11char_traitsIcEENS_9allocatorIcEEEERNS4_IS6_EEEC2B8ue170006IDnS9_EEOT_OT0_, symObjAddr: 0x56B4, symBinAddr: 0x100006DA8, symSize: 0x48 }
  - { offsetInCU: 0x1B249, offset: 0x1B249, size: 0x8, addend: 0x0, symName: __ZNSt3__122__compressed_pair_elemIRNS_9allocatorINS_12basic_stringIcNS_11char_traitsIcEENS1_IcEEEEEELi1ELb0EEC2B8ue170006IS8_vEEOT_, symObjAddr: 0x56FC, symBinAddr: 0x100006DF0, symSize: 0x20 }
  - { offsetInCU: 0x1B28B, offset: 0x1B28B, size: 0x8, addend: 0x0, symName: __ZNSt3__19allocatorINS_12basic_stringIcNS_11char_traitsIcEENS0_IcEEEEE8allocateB8ue170006Em, symObjAddr: 0x571C, symBinAddr: 0x100006E10, symSize: 0x5C }
  - { offsetInCU: 0x1B2BF, offset: 0x1B2BF, size: 0x8, addend: 0x0, symName: __ZNSt3__117__compressed_pairIPNS_12basic_stringIcNS_11char_traitsIcEENS_9allocatorIcEEEERNS4_IS6_EEE6secondB8ue170006Ev, symObjAddr: 0x5778, symBinAddr: 0x100006E6C, symSize: 0x28 }
  - { offsetInCU: 0x1B2E5, offset: 0x1B2E5, size: 0x8, addend: 0x0, symName: __ZNSt3__122__compressed_pair_elemIRNS_9allocatorINS_12basic_stringIcNS_11char_traitsIcEENS1_IcEEEEEELi1ELb0EE5__getB8ue170006Ev, symObjAddr: 0x57A0, symBinAddr: 0x100006E94, symSize: 0x18 }
  - { offsetInCU: 0x1B30B, offset: 0x1B30B, size: 0x8, addend: 0x0, symName: __ZNSt3__117__compressed_pairIPNS_12basic_stringIcNS_11char_traitsIcEENS_9allocatorIcEEEERNS4_IS6_EEE5firstB8ue170006Ev, symObjAddr: 0x57B8, symBinAddr: 0x100006EAC, symSize: 0x24 }
  - { offsetInCU: 0x1B331, offset: 0x1B331, size: 0x8, addend: 0x0, symName: __ZNKSt3__16vectorINS_12basic_stringIcNS_11char_traitsIcEENS_9allocatorIcEEEENS4_IS6_EEE17__annotate_deleteB8ue170006Ev, symObjAddr: 0x57DC, symBinAddr: 0x100006ED0, symSize: 0xD4 }
  - { offsetInCU: 0x1B357, offset: 0x1B357, size: 0x8, addend: 0x0, symName: __ZNSt3__116reverse_iteratorIPNS_12basic_stringIcNS_11char_traitsIcEENS_9allocatorIcEEEEEC1B8ue170006ES7_, symObjAddr: 0x59DC, symBinAddr: 0x1000070D0, symSize: 0x34 }
  - { offsetInCU: 0x1B38F, offset: 0x1B38F, size: 0x8, addend: 0x0, symName: __ZNKSt3__116reverse_iteratorIPNS_12basic_stringIcNS_11char_traitsIcEENS_9allocatorIcEEEEE4baseB8ue170006Ev, symObjAddr: 0x5A10, symBinAddr: 0x100007104, symSize: 0x18 }
  - { offsetInCU: 0x1B3B5, offset: 0x1B3B5, size: 0x8, addend: 0x0, symName: __ZNKSt3__16vectorINS_12basic_stringIcNS_11char_traitsIcEENS_9allocatorIcEEEENS4_IS6_EEE14__annotate_newB8ue170006Em, symObjAddr: 0x5A64, symBinAddr: 0x100007158, symSize: 0xC8 }
  - { offsetInCU: 0x1B3EA, offset: 0x1B3EA, size: 0x8, addend: 0x0, symName: __ZNKSt3__16vectorINS_12basic_stringIcNS_11char_traitsIcEENS_9allocatorIcEEEENS4_IS6_EEE31__annotate_contiguous_containerB8ue170006EPKvSA_SA_SA_, symObjAddr: 0x5B2C, symBinAddr: 0x100007220, symSize: 0x20 }
  - { offsetInCU: 0x1B43C, offset: 0x1B43C, size: 0x8, addend: 0x0, symName: __ZNKSt3__16vectorINS_12basic_stringIcNS_11char_traitsIcEENS_9allocatorIcEEEENS4_IS6_EEE4dataB8ue170006Ev, symObjAddr: 0x5B4C, symBinAddr: 0x100007240, symSize: 0x28 }
  - { offsetInCU: 0x1B462, offset: 0x1B462, size: 0x8, addend: 0x0, symName: __ZNSt3__129_AllocatorDestroyRangeReverseINS_9allocatorINS_12basic_stringIcNS_11char_traitsIcEENS1_IcEEEEEENS_16reverse_iteratorIPS6_EEEC1B8ue170006ERS7_RSA_SD_, symObjAddr: 0x5BC0, symBinAddr: 0x1000072B4, symSize: 0x44 }
  - { offsetInCU: 0x1B4BF, offset: 0x1B4BF, size: 0x8, addend: 0x0, symName: __ZNSt3__116allocator_traitsINS_9allocatorINS_12basic_stringIcNS_11char_traitsIcEENS1_IcEEEEEEE9constructB8ue170006IS6_JS6_EvEEvRS7_PT_DpOT0_, symObjAddr: 0x5C4C, symBinAddr: 0x100007340, symSize: 0x34 }
  - { offsetInCU: 0x1B516, offset: 0x1B516, size: 0x8, addend: 0x0, symName: __ZNKSt3__116reverse_iteratorIPNS_12basic_stringIcNS_11char_traitsIcEENS_9allocatorIcEEEEEdeB8ue170006Ev, symObjAddr: 0x5CA4, symBinAddr: 0x100007398, symSize: 0x28 }
  - { offsetInCU: 0x1B54A, offset: 0x1B54A, size: 0x8, addend: 0x0, symName: __ZNSt3__116reverse_iteratorIPNS_12basic_stringIcNS_11char_traitsIcEENS_9allocatorIcEEEEEppB8ue170006Ev, symObjAddr: 0x5CCC, symBinAddr: 0x1000073C0, symSize: 0x20 }
  - { offsetInCU: 0x1B570, offset: 0x1B570, size: 0x8, addend: 0x0, symName: __ZNSt3__128__exception_guard_exceptionsINS_29_AllocatorDestroyRangeReverseINS_9allocatorINS_12basic_stringIcNS_11char_traitsIcEENS2_IcEEEEEENS_16reverse_iteratorIPS7_EEEEE10__completeB8ue170006Ev, symObjAddr: 0x5CEC, symBinAddr: 0x1000073E0, symSize: 0x1C }
  - { offsetInCU: 0x1B596, offset: 0x1B596, size: 0x8, addend: 0x0, symName: __ZNSt3__128__exception_guard_exceptionsINS_29_AllocatorDestroyRangeReverseINS_9allocatorINS_12basic_stringIcNS_11char_traitsIcEENS2_IcEEEEEENS_16reverse_iteratorIPS7_EEEEED1B8ue170006Ev, symObjAddr: 0x5D08, symBinAddr: 0x1000073FC, symSize: 0x2C }
  - { offsetInCU: 0x1B5C0, offset: 0x1B5C0, size: 0x8, addend: 0x0, symName: __ZNSt3__128__exception_guard_exceptionsINS_29_AllocatorDestroyRangeReverseINS_9allocatorINS_12basic_stringIcNS_11char_traitsIcEENS2_IcEEEEEENS_16reverse_iteratorIPS7_EEEEEC1B8ue170006ESC_, symObjAddr: 0x5D34, symBinAddr: 0x100007428, symSize: 0x34 }
  - { offsetInCU: 0x1B5F9, offset: 0x1B5F9, size: 0x8, addend: 0x0, symName: __ZNSt3__128__exception_guard_exceptionsINS_29_AllocatorDestroyRangeReverseINS_9allocatorINS_12basic_stringIcNS_11char_traitsIcEENS2_IcEEEEEENS_16reverse_iteratorIPS7_EEEEEC2B8ue170006ESC_, symObjAddr: 0x5D68, symBinAddr: 0x10000745C, symSize: 0x30 }
  - { offsetInCU: 0x1B632, offset: 0x1B632, size: 0x8, addend: 0x0, symName: __ZNSt3__129_AllocatorDestroyRangeReverseINS_9allocatorINS_12basic_stringIcNS_11char_traitsIcEENS1_IcEEEEEENS_16reverse_iteratorIPS6_EEEC2B8ue170006ERS7_RSA_SD_, symObjAddr: 0x5D98, symBinAddr: 0x10000748C, symSize: 0x38 }
  - { offsetInCU: 0x1B689, offset: 0x1B689, size: 0x8, addend: 0x0, symName: __ZNSt3__19allocatorINS_12basic_stringIcNS_11char_traitsIcEENS0_IcEEEEE9constructB8ue170006IS5_JS5_EEEvPT_DpOT0_, symObjAddr: 0x5DD0, symBinAddr: 0x1000074C4, symSize: 0x30 }
  - { offsetInCU: 0x1B6DF, offset: 0x1B6DF, size: 0x8, addend: 0x0, symName: __ZNSt3__112basic_stringIcNS_11char_traitsIcEENS_9allocatorIcEEEC1B8ue170006EOS5_, symObjAddr: 0x5E00, symBinAddr: 0x1000074F4, symSize: 0x34 }
  - { offsetInCU: 0x1B718, offset: 0x1B718, size: 0x8, addend: 0x0, symName: __ZNSt3__112basic_stringIcNS_11char_traitsIcEENS_9allocatorIcEEEC2B8ue170006EOS5_, symObjAddr: 0x5E34, symBinAddr: 0x100007528, symSize: 0x48 }
  - { offsetInCU: 0x1B757, offset: 0x1B757, size: 0x8, addend: 0x0, symName: __ZNSt3__119__to_address_helperINS_16reverse_iteratorIPNS_12basic_stringIcNS_11char_traitsIcEENS_9allocatorIcEEEEEEvE6__callB8ue170006ERKS9_, symObjAddr: 0x5E7C, symBinAddr: 0x100007570, symSize: 0x38 }
  - { offsetInCU: 0x1B77A, offset: 0x1B77A, size: 0x8, addend: 0x0, symName: __ZNKSt3__116reverse_iteratorIPNS_12basic_stringIcNS_11char_traitsIcEENS_9allocatorIcEEEEEptB8ue170006Ev, symObjAddr: 0x5EB4, symBinAddr: 0x1000075A8, symSize: 0x24 }
  - { offsetInCU: 0x1B7A0, offset: 0x1B7A0, size: 0x8, addend: 0x0, symName: __ZNSt3__128__exception_guard_exceptionsINS_29_AllocatorDestroyRangeReverseINS_9allocatorINS_12basic_stringIcNS_11char_traitsIcEENS2_IcEEEEEENS_16reverse_iteratorIPS7_EEEEED2B8ue170006Ev, symObjAddr: 0x5ED8, symBinAddr: 0x1000075CC, symSize: 0x50 }
  - { offsetInCU: 0x1B7CA, offset: 0x1B7CA, size: 0x8, addend: 0x0, symName: __ZNKSt3__129_AllocatorDestroyRangeReverseINS_9allocatorINS_12basic_stringIcNS_11char_traitsIcEENS1_IcEEEEEENS_16reverse_iteratorIPS6_EEEclB8ue170006Ev, symObjAddr: 0x5F28, symBinAddr: 0x10000761C, symSize: 0xB4 }
  - { offsetInCU: 0x1B7F1, offset: 0x1B7F1, size: 0x8, addend: 0x0, symName: __ZNSt3__116reverse_iteratorINS0_IPNS_12basic_stringIcNS_11char_traitsIcEENS_9allocatorIcEEEEEEEC1B8ue170006ES8_, symObjAddr: 0x604C, symBinAddr: 0x100007740, symSize: 0x3C }
  - { offsetInCU: 0x1B829, offset: 0x1B829, size: 0x8, addend: 0x0, symName: __ZNSt3__116allocator_traitsINS_9allocatorINS_12basic_stringIcNS_11char_traitsIcEENS1_IcEEEEEEE7destroyB8ue170006IS6_vEEvRS7_PT_, symObjAddr: 0x60E8, symBinAddr: 0x1000077DC, symSize: 0x2C }
  - { offsetInCU: 0x1B866, offset: 0x1B866, size: 0x8, addend: 0x0, symName: __ZNSt3__116reverse_iteratorINS0_IPNS_12basic_stringIcNS_11char_traitsIcEENS_9allocatorIcEEEEEEEppB8ue170006Ev, symObjAddr: 0x6138, symBinAddr: 0x10000782C, symSize: 0x30 }
  - { offsetInCU: 0x1B88C, offset: 0x1B88C, size: 0x8, addend: 0x0, symName: __ZNKSt3__116reverse_iteratorINS0_IPNS_12basic_stringIcNS_11char_traitsIcEENS_9allocatorIcEEEEEEE4baseB8ue170006Ev, symObjAddr: 0x6168, symBinAddr: 0x10000785C, symSize: 0x24 }
  - { offsetInCU: 0x1B8B2, offset: 0x1B8B2, size: 0x8, addend: 0x0, symName: __ZNSt3__19allocatorINS_12basic_stringIcNS_11char_traitsIcEENS0_IcEEEEE7destroyB8ue170006EPS5_, symObjAddr: 0x618C, symBinAddr: 0x100007880, symSize: 0x28 }
  - { offsetInCU: 0x1B8EC, offset: 0x1B8EC, size: 0x8, addend: 0x0, symName: __ZNSt3__119__to_address_helperINS_16reverse_iteratorINS1_IPNS_12basic_stringIcNS_11char_traitsIcEENS_9allocatorIcEEEEEEEEvE6__callB8ue170006ERKSA_, symObjAddr: 0x61B4, symBinAddr: 0x1000078A8, symSize: 0x38 }
  - { offsetInCU: 0x1B90F, offset: 0x1B90F, size: 0x8, addend: 0x0, symName: __ZNKSt3__116reverse_iteratorINS0_IPNS_12basic_stringIcNS_11char_traitsIcEENS_9allocatorIcEEEEEEEptB8ue170006Ev, symObjAddr: 0x61EC, symBinAddr: 0x1000078E0, symSize: 0x24 }
  - { offsetInCU: 0x1B935, offset: 0x1B935, size: 0x8, addend: 0x0, symName: __ZNKSt3__116reverse_iteratorINS0_IPNS_12basic_stringIcNS_11char_traitsIcEENS_9allocatorIcEEEEEEEdeB8ue170006Ev, symObjAddr: 0x6210, symBinAddr: 0x100007904, symSize: 0x34 }
  - { offsetInCU: 0x1B969, offset: 0x1B969, size: 0x8, addend: 0x0, symName: __ZNSt3__116reverse_iteratorIPNS_12basic_stringIcNS_11char_traitsIcEENS_9allocatorIcEEEEEmmB8ue170006Ev, symObjAddr: 0x6244, symBinAddr: 0x100007938, symSize: 0x20 }
  - { offsetInCU: 0x1B98F, offset: 0x1B98F, size: 0x8, addend: 0x0, symName: __ZNSt3__116reverse_iteratorINS0_IPNS_12basic_stringIcNS_11char_traitsIcEENS_9allocatorIcEEEEEEEC2B8ue170006ES8_, symObjAddr: 0x6264, symBinAddr: 0x100007958, symSize: 0x2C }
  - { offsetInCU: 0x1B9C7, offset: 0x1B9C7, size: 0x8, addend: 0x0, symName: __ZNSt3__116reverse_iteratorIPNS_12basic_stringIcNS_11char_traitsIcEENS_9allocatorIcEEEEEC2B8ue170006ES7_, symObjAddr: 0x6290, symBinAddr: 0x100007984, symSize: 0x28 }
  - { offsetInCU: 0x1B9FF, offset: 0x1B9FF, size: 0x8, addend: 0x0, symName: __ZNSt3__114__split_bufferINS_12basic_stringIcNS_11char_traitsIcEENS_9allocatorIcEEEERNS4_IS6_EEED2Ev, symObjAddr: 0x62B8, symBinAddr: 0x1000079AC, symSize: 0x8C }
  - { offsetInCU: 0x1BA2B, offset: 0x1BA2B, size: 0x8, addend: 0x0, symName: __ZNSt3__114__split_bufferINS_12basic_stringIcNS_11char_traitsIcEENS_9allocatorIcEEEERNS4_IS6_EEE5clearB8ue170006Ev, symObjAddr: 0x6344, symBinAddr: 0x100007A38, symSize: 0x28 }
  - { offsetInCU: 0x1BA51, offset: 0x1BA51, size: 0x8, addend: 0x0, symName: __ZNSt3__116allocator_traitsINS_9allocatorINS_12basic_stringIcNS_11char_traitsIcEENS1_IcEEEEEEE10deallocateB8ue170006ERS7_PS6_m, symObjAddr: 0x636C, symBinAddr: 0x100007A60, symSize: 0x34 }
  - { offsetInCU: 0x1BA93, offset: 0x1BA93, size: 0x8, addend: 0x0, symName: __ZNKSt3__114__split_bufferINS_12basic_stringIcNS_11char_traitsIcEENS_9allocatorIcEEEERNS4_IS6_EEE8capacityB8ue170006Ev, symObjAddr: 0x63A0, symBinAddr: 0x100007A94, symSize: 0x40 }
  - { offsetInCU: 0x1BAB9, offset: 0x1BAB9, size: 0x8, addend: 0x0, symName: __ZNSt3__114__split_bufferINS_12basic_stringIcNS_11char_traitsIcEENS_9allocatorIcEEEERNS4_IS6_EEE17__destruct_at_endB8ue170006EPS6_, symObjAddr: 0x63E0, symBinAddr: 0x100007AD4, symSize: 0x2C }
  - { offsetInCU: 0x1BAED, offset: 0x1BAED, size: 0x8, addend: 0x0, symName: __ZNSt3__114__split_bufferINS_12basic_stringIcNS_11char_traitsIcEENS_9allocatorIcEEEERNS4_IS6_EEE17__destruct_at_endB8ue170006EPS6_NS_17integral_constantIbLb0EEE, symObjAddr: 0x640C, symBinAddr: 0x100007B00, symSize: 0x80 }
  - { offsetInCU: 0x1BB2E, offset: 0x1BB2E, size: 0x8, addend: 0x0, symName: __ZNSt3__19allocatorINS_12basic_stringIcNS_11char_traitsIcEENS0_IcEEEEE10deallocateB8ue170006EPS5_m, symObjAddr: 0x648C, symBinAddr: 0x100007B80, symSize: 0x44 }
  - { offsetInCU: 0x1BB70, offset: 0x1BB70, size: 0x8, addend: 0x0, symName: __ZNKSt3__114__split_bufferINS_12basic_stringIcNS_11char_traitsIcEENS_9allocatorIcEEEERNS4_IS6_EEE9__end_capB8ue170006Ev, symObjAddr: 0x64D0, symBinAddr: 0x100007BC4, symSize: 0x28 }
  - { offsetInCU: 0x1BB96, offset: 0x1BB96, size: 0x8, addend: 0x0, symName: __ZNKSt3__117__compressed_pairIPNS_12basic_stringIcNS_11char_traitsIcEENS_9allocatorIcEEEERNS4_IS6_EEE5firstB8ue170006Ev, symObjAddr: 0x64F8, symBinAddr: 0x100007BEC, symSize: 0x24 }
  - { offsetInCU: 0x1BBBC, offset: 0x1BBBC, size: 0x8, addend: 0x0, symName: __ZNSt3__14listIN5Graph4EdgeENS_9allocatorIS2_EEEC2B8ue170006Ev, symObjAddr: 0x651C, symBinAddr: 0x100007C10, symSize: 0x2C }
  - { offsetInCU: 0x1BBE6, offset: 0x1BBE6, size: 0x8, addend: 0x0, symName: __ZNSt3__110__list_impIN5Graph4EdgeENS_9allocatorIS2_EEEC2Ev, symObjAddr: 0x6548, symBinAddr: 0x100007C3C, symSize: 0x50 }
  - { offsetInCU: 0x1BC12, offset: 0x1BC12, size: 0x8, addend: 0x0, symName: __ZNSt3__116__list_node_baseIN5Graph4EdgeEPvEC1B8ue170006Ev, symObjAddr: 0x6598, symBinAddr: 0x100007C8C, symSize: 0x2C }
  - { offsetInCU: 0x1BC3C, offset: 0x1BC3C, size: 0x8, addend: 0x0, symName: __ZNSt3__117__compressed_pairImNS_9allocatorINS_11__list_nodeIN5Graph4EdgeEPvEEEEEC1B8ue170006IiNS_18__default_init_tagEEEOT_OT0_, symObjAddr: 0x65C4, symBinAddr: 0x100007CB8, symSize: 0x3C }
  - { offsetInCU: 0x1BC94, offset: 0x1BC94, size: 0x8, addend: 0x0, symName: __ZNSt3__116__list_node_baseIN5Graph4EdgeEPvEC2B8ue170006Ev, symObjAddr: 0x6600, symBinAddr: 0x100007CF4, symSize: 0x4C }
  - { offsetInCU: 0x1BCBE, offset: 0x1BCBE, size: 0x8, addend: 0x0, symName: __ZNSt3__126__list_node_pointer_traitsIN5Graph4EdgeEPvE26__unsafe_link_pointer_castB8ue170006EPNS_16__list_node_baseIS2_S3_EE, symObjAddr: 0x664C, symBinAddr: 0x100007D40, symSize: 0x14 }
  - { offsetInCU: 0x1BCE2, offset: 0x1BCE2, size: 0x8, addend: 0x0, symName: __ZNSt3__116__list_node_baseIN5Graph4EdgeEPvE6__selfB8ue170006Ev, symObjAddr: 0x6660, symBinAddr: 0x100007D54, symSize: 0x24 }
  - { offsetInCU: 0x1BD0E, offset: 0x1BD0E, size: 0x8, addend: 0x0, symName: __ZNSt3__114pointer_traitsIPNS_16__list_node_baseIN5Graph4EdgeEPvEEE10pointer_toB8ue170006ERS5_, symObjAddr: 0x6684, symBinAddr: 0x100007D78, symSize: 0x14 }
  - { offsetInCU: 0x1BD31, offset: 0x1BD31, size: 0x8, addend: 0x0, symName: __ZNSt3__117__compressed_pairImNS_9allocatorINS_11__list_nodeIN5Graph4EdgeEPvEEEEEC2B8ue170006IiNS_18__default_init_tagEEEOT_OT0_, symObjAddr: 0x6698, symBinAddr: 0x100007D8C, symSize: 0x40 }
  - { offsetInCU: 0x1BD89, offset: 0x1BD89, size: 0x8, addend: 0x0, symName: __ZNSt3__122__compressed_pair_elemINS_9allocatorINS_11__list_nodeIN5Graph4EdgeEPvEEEELi1ELb1EEC2B8ue170006ENS_18__default_init_tagE, symObjAddr: 0x66D8, symBinAddr: 0x100007DCC, symSize: 0x2C }
  - { offsetInCU: 0x1BDBE, offset: 0x1BDBE, size: 0x8, addend: 0x0, symName: __ZNSt3__19allocatorINS_11__list_nodeIN5Graph4EdgeEPvEEEC2B8ue170006Ev, symObjAddr: 0x6704, symBinAddr: 0x100007DF8, symSize: 0x2C }
  - { offsetInCU: 0x1BDE8, offset: 0x1BDE8, size: 0x8, addend: 0x0, symName: __ZNSt3__116__non_trivial_ifILb1ENS_9allocatorINS_11__list_nodeIN5Graph4EdgeEPvEEEEEC2B8ue170006Ev, symObjAddr: 0x6730, symBinAddr: 0x100007E24, symSize: 0x14 }
  - { offsetInCU: 0x1BE12, offset: 0x1BE12, size: 0x8, addend: 0x0, symName: __ZNSt3__110__list_impIN5Graph4EdgeENS_9allocatorIS2_EEE5clearEv, symObjAddr: 0x6744, symBinAddr: 0x100007E38, symSize: 0xE0 }
  - { offsetInCU: 0x1BE82, offset: 0x1BE82, size: 0x8, addend: 0x0, symName: __ZNKSt3__110__list_impIN5Graph4EdgeENS_9allocatorIS2_EEE5emptyB8ue170006Ev, symObjAddr: 0x6824, symBinAddr: 0x100007F18, symSize: 0x34 }
  - { offsetInCU: 0x1BEA8, offset: 0x1BEA8, size: 0x8, addend: 0x0, symName: __ZNSt3__110__list_impIN5Graph4EdgeENS_9allocatorIS2_EEE12__node_allocB8ue170006Ev, symObjAddr: 0x6858, symBinAddr: 0x100007F4C, symSize: 0x28 }
  - { offsetInCU: 0x1BECE, offset: 0x1BECE, size: 0x8, addend: 0x0, symName: __ZNKSt3__110__list_impIN5Graph4EdgeENS_9allocatorIS2_EEE13__end_as_linkB8ue170006Ev, symObjAddr: 0x6880, symBinAddr: 0x100007F74, symSize: 0x28 }
  - { offsetInCU: 0x1BEF4, offset: 0x1BEF4, size: 0x8, addend: 0x0, symName: __ZNSt3__110__list_impIN5Graph4EdgeENS_9allocatorIS2_EEE14__unlink_nodesEPNS_16__list_node_baseIS2_PvEES9_, symObjAddr: 0x68A8, symBinAddr: 0x100007F9C, symSize: 0x3C }
  - { offsetInCU: 0x1BF29, offset: 0x1BF29, size: 0x8, addend: 0x0, symName: __ZNSt3__110__list_impIN5Graph4EdgeENS_9allocatorIS2_EEE4__szB8ue170006Ev, symObjAddr: 0x68E4, symBinAddr: 0x100007FD8, symSize: 0x28 }
  - { offsetInCU: 0x1BF4F, offset: 0x1BF4F, size: 0x8, addend: 0x0, symName: __ZNSt3__116__list_node_baseIN5Graph4EdgeEPvE9__as_nodeB8ue170006Ev, symObjAddr: 0x690C, symBinAddr: 0x100008000, symSize: 0x24 }
  - { offsetInCU: 0x1BF75, offset: 0x1BF75, size: 0x8, addend: 0x0, symName: __ZNSt3__116allocator_traitsINS_9allocatorINS_11__list_nodeIN5Graph4EdgeEPvEEEEE7destroyB8ue170006IS4_vvEEvRS7_PT_, symObjAddr: 0x6930, symBinAddr: 0x100008024, symSize: 0x14 }
  - { offsetInCU: 0x1BFAF, offset: 0x1BFAF, size: 0x8, addend: 0x0, symName: __ZNSt3__116allocator_traitsINS_9allocatorINS_11__list_nodeIN5Graph4EdgeEPvEEEEE10deallocateB8ue170006ERS7_PS6_m, symObjAddr: 0x6944, symBinAddr: 0x100008038, symSize: 0x34 }
  - { offsetInCU: 0x1BFF1, offset: 0x1BFF1, size: 0x8, addend: 0x0, symName: __ZNKSt3__110__list_impIN5Graph4EdgeENS_9allocatorIS2_EEE4__szB8ue170006Ev, symObjAddr: 0x6978, symBinAddr: 0x10000806C, symSize: 0x28 }
  - { offsetInCU: 0x1C017, offset: 0x1C017, size: 0x8, addend: 0x0, symName: __ZNKSt3__117__compressed_pairImNS_9allocatorINS_11__list_nodeIN5Graph4EdgeEPvEEEEE5firstB8ue170006Ev, symObjAddr: 0x69A0, symBinAddr: 0x100008094, symSize: 0x24 }
  - { offsetInCU: 0x1C03D, offset: 0x1C03D, size: 0x8, addend: 0x0, symName: __ZNKSt3__122__compressed_pair_elemImLi0ELb0EE5__getB8ue170006Ev, symObjAddr: 0x69C4, symBinAddr: 0x1000080B8, symSize: 0x14 }
  - { offsetInCU: 0x1C063, offset: 0x1C063, size: 0x8, addend: 0x0, symName: __ZNSt3__117__compressed_pairImNS_9allocatorINS_11__list_nodeIN5Graph4EdgeEPvEEEEE6secondB8ue170006Ev, symObjAddr: 0x69D8, symBinAddr: 0x1000080CC, symSize: 0x24 }
  - { offsetInCU: 0x1C089, offset: 0x1C089, size: 0x8, addend: 0x0, symName: __ZNSt3__122__compressed_pair_elemINS_9allocatorINS_11__list_nodeIN5Graph4EdgeEPvEEEELi1ELb1EE5__getB8ue170006Ev, symObjAddr: 0x69FC, symBinAddr: 0x1000080F0, symSize: 0x14 }
  - { offsetInCU: 0x1C0AF, offset: 0x1C0AF, size: 0x8, addend: 0x0, symName: __ZNSt3__117__compressed_pairImNS_9allocatorINS_11__list_nodeIN5Graph4EdgeEPvEEEEE5firstB8ue170006Ev, symObjAddr: 0x6A10, symBinAddr: 0x100008104, symSize: 0x24 }
  - { offsetInCU: 0x1C0D5, offset: 0x1C0D5, size: 0x8, addend: 0x0, symName: __ZNSt3__19allocatorINS_11__list_nodeIN5Graph4EdgeEPvEEE10deallocateB8ue170006EPS5_m, symObjAddr: 0x6A34, symBinAddr: 0x100008128, symSize: 0x44 }
  - { offsetInCU: 0x1C117, offset: 0x1C117, size: 0x8, addend: 0x0, symName: __ZNSt3__14listIN5Graph4EdgeENS_9allocatorIS2_EEE15__allocate_nodeB8ue170006ERNS3_INS_11__list_nodeIS2_PvEEEE, symObjAddr: 0x6A78, symBinAddr: 0x10000816C, symSize: 0x70 }
  - { offsetInCU: 0x1C161, offset: 0x1C161, size: 0x8, addend: 0x0, symName: __ZNSt3__116allocator_traitsINS_9allocatorINS_11__list_nodeIN5Graph4EdgeEPvEEEEE9constructB8ue170006IS4_JS4_EvEEvRS7_PT_DpOT0_, symObjAddr: 0x6AE8, symBinAddr: 0x1000081DC, symSize: 0x34 }
  - { offsetInCU: 0x1C1B8, offset: 0x1C1B8, size: 0x8, addend: 0x0, symName: __ZNKSt3__110unique_ptrINS_11__list_nodeIN5Graph4EdgeEPvEENS_22__allocator_destructorINS_9allocatorIS5_EEEEEptB8ue170006Ev, symObjAddr: 0x6B1C, symBinAddr: 0x100008210, symSize: 0x28 }
  - { offsetInCU: 0x1C1DE, offset: 0x1C1DE, size: 0x8, addend: 0x0, symName: __ZNSt3__14listIN5Graph4EdgeENS_9allocatorIS2_EEE20__link_nodes_at_backEPNS_16__list_node_baseIS2_PvEES9_, symObjAddr: 0x6B44, symBinAddr: 0x100008238, symSize: 0x60 }
  - { offsetInCU: 0x1C224, offset: 0x1C224, size: 0x8, addend: 0x0, symName: __ZNKSt3__110unique_ptrINS_11__list_nodeIN5Graph4EdgeEPvEENS_22__allocator_destructorINS_9allocatorIS5_EEEEE3getB8ue170006Ev, symObjAddr: 0x6BA4, symBinAddr: 0x100008298, symSize: 0x28 }
  - { offsetInCU: 0x1C24A, offset: 0x1C24A, size: 0x8, addend: 0x0, symName: __ZNSt3__111__list_nodeIN5Graph4EdgeEPvE9__as_linkB8ue170006Ev, symObjAddr: 0x6BCC, symBinAddr: 0x1000082C0, symSize: 0x24 }
  - { offsetInCU: 0x1C270, offset: 0x1C270, size: 0x8, addend: 0x0, symName: __ZNSt3__110unique_ptrINS_11__list_nodeIN5Graph4EdgeEPvEENS_22__allocator_destructorINS_9allocatorIS5_EEEEE7releaseB8ue170006Ev, symObjAddr: 0x6BF0, symBinAddr: 0x1000082E4, symSize: 0x44 }
  - { offsetInCU: 0x1C2A5, offset: 0x1C2A5, size: 0x8, addend: 0x0, symName: __ZNSt3__110unique_ptrINS_11__list_nodeIN5Graph4EdgeEPvEENS_22__allocator_destructorINS_9allocatorIS5_EEEEED1B8ue170006Ev, symObjAddr: 0x6C34, symBinAddr: 0x100008328, symSize: 0x2C }
  - { offsetInCU: 0x1C2CF, offset: 0x1C2CF, size: 0x8, addend: 0x0, symName: __ZNSt3__116allocator_traitsINS_9allocatorINS_11__list_nodeIN5Graph4EdgeEPvEEEEE8allocateB8ue170006ERS7_m, symObjAddr: 0x6C60, symBinAddr: 0x100008354, symSize: 0x2C }
  - { offsetInCU: 0x1C302, offset: 0x1C302, size: 0x8, addend: 0x0, symName: __ZNSt3__122__allocator_destructorINS_9allocatorINS_11__list_nodeIN5Graph4EdgeEPvEEEEEC1B8ue170006ERS7_m, symObjAddr: 0x6C8C, symBinAddr: 0x100008380, symSize: 0x3C }
  - { offsetInCU: 0x1C34E, offset: 0x1C34E, size: 0x8, addend: 0x0, symName: __ZNSt3__110unique_ptrINS_11__list_nodeIN5Graph4EdgeEPvEENS_22__allocator_destructorINS_9allocatorIS5_EEEEEC1B8ue170006ILb1EvEEPS5_NS_16__dependent_typeINS_27__unique_ptr_deleter_sfinaeIS9_EEXT_EE20__good_rval_ref_typeE, symObjAddr: 0x6CC8, symBinAddr: 0x1000083BC, symSize: 0x3C }
  - { offsetInCU: 0x1C39F, offset: 0x1C39F, size: 0x8, addend: 0x0, symName: __ZNSt3__19allocatorINS_11__list_nodeIN5Graph4EdgeEPvEEE8allocateB8ue170006Em, symObjAddr: 0x6D04, symBinAddr: 0x1000083F8, symSize: 0x5C }
  - { offsetInCU: 0x1C3DE, offset: 0x1C3DE, size: 0x8, addend: 0x0, symName: __ZNSt3__116allocator_traitsINS_9allocatorINS_11__list_nodeIN5Graph4EdgeEPvEEEEE8max_sizeB8ue170006IS7_vEEmRKS7_, symObjAddr: 0x6D60, symBinAddr: 0x100008454, symSize: 0x24 }
  - { offsetInCU: 0x1C40C, offset: 0x1C40C, size: 0x8, addend: 0x0, symName: __ZNKSt3__19allocatorINS_11__list_nodeIN5Graph4EdgeEPvEEE8max_sizeB8ue170006Ev, symObjAddr: 0x6D84, symBinAddr: 0x100008478, symSize: 0x18 }
  - { offsetInCU: 0x1C432, offset: 0x1C432, size: 0x8, addend: 0x0, symName: __ZNSt3__122__allocator_destructorINS_9allocatorINS_11__list_nodeIN5Graph4EdgeEPvEEEEEC2B8ue170006ERS7_m, symObjAddr: 0x6D9C, symBinAddr: 0x100008490, symSize: 0x2C }
  - { offsetInCU: 0x1C478, offset: 0x1C478, size: 0x8, addend: 0x0, symName: __ZNSt3__110unique_ptrINS_11__list_nodeIN5Graph4EdgeEPvEENS_22__allocator_destructorINS_9allocatorIS5_EEEEEC2B8ue170006ILb1EvEEPS5_NS_16__dependent_typeINS_27__unique_ptr_deleter_sfinaeIS9_EEXT_EE20__good_rval_ref_typeE, symObjAddr: 0x6DC8, symBinAddr: 0x1000084BC, symSize: 0x48 }
  - { offsetInCU: 0x1C4C9, offset: 0x1C4C9, size: 0x8, addend: 0x0, symName: __ZNSt3__117__compressed_pairIPNS_11__list_nodeIN5Graph4EdgeEPvEENS_22__allocator_destructorINS_9allocatorIS5_EEEEEC1B8ue170006IRS6_SA_EEOT_OT0_, symObjAddr: 0x6E10, symBinAddr: 0x100008504, symSize: 0x3C }
  - { offsetInCU: 0x1C521, offset: 0x1C521, size: 0x8, addend: 0x0, symName: __ZNSt3__117__compressed_pairIPNS_11__list_nodeIN5Graph4EdgeEPvEENS_22__allocator_destructorINS_9allocatorIS5_EEEEEC2B8ue170006IRS6_SA_EEOT_OT0_, symObjAddr: 0x6E4C, symBinAddr: 0x100008540, symSize: 0x48 }
  - { offsetInCU: 0x1C579, offset: 0x1C579, size: 0x8, addend: 0x0, symName: __ZNSt3__122__compressed_pair_elemIPNS_11__list_nodeIN5Graph4EdgeEPvEELi0ELb0EEC2B8ue170006IRS6_vEEOT_, symObjAddr: 0x6E94, symBinAddr: 0x100008588, symSize: 0x24 }
  - { offsetInCU: 0x1C5BB, offset: 0x1C5BB, size: 0x8, addend: 0x0, symName: __ZNSt3__122__compressed_pair_elemINS_22__allocator_destructorINS_9allocatorINS_11__list_nodeIN5Graph4EdgeEPvEEEEEELi1ELb0EEC2B8ue170006IS9_vEEOT_, symObjAddr: 0x6EB8, symBinAddr: 0x1000085AC, symSize: 0x24 }
  - { offsetInCU: 0x1C5FD, offset: 0x1C5FD, size: 0x8, addend: 0x0, symName: __ZNSt3__19allocatorINS_11__list_nodeIN5Graph4EdgeEPvEEE9constructB8ue170006IS3_JS3_EEEvPT_DpOT0_, symObjAddr: 0x6EDC, symBinAddr: 0x1000085D0, symSize: 0x28 }
  - { offsetInCU: 0x1C653, offset: 0x1C653, size: 0x8, addend: 0x0, symName: __ZNKSt3__117__compressed_pairIPNS_11__list_nodeIN5Graph4EdgeEPvEENS_22__allocator_destructorINS_9allocatorIS5_EEEEE5firstB8ue170006Ev, symObjAddr: 0x6F04, symBinAddr: 0x1000085F8, symSize: 0x24 }
  - { offsetInCU: 0x1C679, offset: 0x1C679, size: 0x8, addend: 0x0, symName: __ZNKSt3__122__compressed_pair_elemIPNS_11__list_nodeIN5Graph4EdgeEPvEELi0ELb0EE5__getB8ue170006Ev, symObjAddr: 0x6F28, symBinAddr: 0x10000861C, symSize: 0x14 }
  - { offsetInCU: 0x1C69F, offset: 0x1C69F, size: 0x8, addend: 0x0, symName: __ZNSt3__117__compressed_pairIPNS_11__list_nodeIN5Graph4EdgeEPvEENS_22__allocator_destructorINS_9allocatorIS5_EEEEE5firstB8ue170006Ev, symObjAddr: 0x6F3C, symBinAddr: 0x100008630, symSize: 0x24 }
  - { offsetInCU: 0x1C6C5, offset: 0x1C6C5, size: 0x8, addend: 0x0, symName: __ZNSt3__122__compressed_pair_elemIPNS_11__list_nodeIN5Graph4EdgeEPvEELi0ELb0EE5__getB8ue170006Ev, symObjAddr: 0x6F60, symBinAddr: 0x100008654, symSize: 0x14 }
  - { offsetInCU: 0x1C6EB, offset: 0x1C6EB, size: 0x8, addend: 0x0, symName: __ZNSt3__110unique_ptrINS_11__list_nodeIN5Graph4EdgeEPvEENS_22__allocator_destructorINS_9allocatorIS5_EEEEED2B8ue170006Ev, symObjAddr: 0x6F74, symBinAddr: 0x100008668, symSize: 0x30 }
  - { offsetInCU: 0x1C715, offset: 0x1C715, size: 0x8, addend: 0x0, symName: __ZNSt3__110unique_ptrINS_11__list_nodeIN5Graph4EdgeEPvEENS_22__allocator_destructorINS_9allocatorIS5_EEEEE5resetB8ue170006EPS5_, symObjAddr: 0x6FA4, symBinAddr: 0x100008698, symSize: 0x78 }
  - { offsetInCU: 0x1C759, offset: 0x1C759, size: 0x8, addend: 0x0, symName: __ZNSt3__117__compressed_pairIPNS_11__list_nodeIN5Graph4EdgeEPvEENS_22__allocator_destructorINS_9allocatorIS5_EEEEE6secondB8ue170006Ev, symObjAddr: 0x701C, symBinAddr: 0x100008710, symSize: 0x28 }
  - { offsetInCU: 0x1C77F, offset: 0x1C77F, size: 0x8, addend: 0x0, symName: __ZNSt3__122__allocator_destructorINS_9allocatorINS_11__list_nodeIN5Graph4EdgeEPvEEEEEclB8ue170006EPS6_, symObjAddr: 0x7044, symBinAddr: 0x100008738, symSize: 0x34 }
  - { offsetInCU: 0x1C7B3, offset: 0x1C7B3, size: 0x8, addend: 0x0, symName: __ZNSt3__122__compressed_pair_elemINS_22__allocator_destructorINS_9allocatorINS_11__list_nodeIN5Graph4EdgeEPvEEEEEELi1ELb0EE5__getB8ue170006Ev, symObjAddr: 0x7078, symBinAddr: 0x10000876C, symSize: 0x14 }
  - { offsetInCU: 0x1C7D9, offset: 0x1C7D9, size: 0x8, addend: 0x0, symName: __ZN5Graph4EdgeC2Eji, symObjAddr: 0x708C, symBinAddr: 0x100008780, symSize: 0x2C }
  - { offsetInCU: 0x1C81F, offset: 0x1C81F, size: 0x8, addend: 0x0, symName: __ZNSt3__16vectorINS_4listIN5Graph4EdgeENS_9allocatorIS3_EEEENS4_IS6_EEE9__end_capB8ue170006Ev, symObjAddr: 0x70B8, symBinAddr: 0x1000087AC, symSize: 0x28 }
  - { offsetInCU: 0x1C845, offset: 0x1C845, size: 0x8, addend: 0x0, symName: __ZNSt3__16vectorINS_4listIN5Graph4EdgeENS_9allocatorIS3_EEEENS4_IS6_EEE22__construct_one_at_endB8ue170006IJRKS6_EEEvDpOT_, symObjAddr: 0x70E0, symBinAddr: 0x1000087D4, symSize: 0x90 }
  - { offsetInCU: 0x1C894, offset: 0x1C894, size: 0x8, addend: 0x0, symName: __ZNSt3__16vectorINS_4listIN5Graph4EdgeENS_9allocatorIS3_EEEENS4_IS6_EEE21__push_back_slow_pathIRKS6_EEvOT_, symObjAddr: 0x7170, symBinAddr: 0x100008864, symSize: 0xD8 }
  - { offsetInCU: 0x1C8F2, offset: 0x1C8F2, size: 0x8, addend: 0x0, symName: __ZNSt3__117__compressed_pairIPNS_4listIN5Graph4EdgeENS_9allocatorIS3_EEEENS4_IS6_EEE5firstB8ue170006Ev, symObjAddr: 0x7248, symBinAddr: 0x10000893C, symSize: 0x24 }
  - { offsetInCU: 0x1C918, offset: 0x1C918, size: 0x8, addend: 0x0, symName: __ZNSt3__122__compressed_pair_elemIPNS_4listIN5Graph4EdgeENS_9allocatorIS3_EEEELi0ELb0EE5__getB8ue170006Ev, symObjAddr: 0x726C, symBinAddr: 0x100008960, symSize: 0x14 }
  - { offsetInCU: 0x1C959, offset: 0x1C959, size: 0x8, addend: 0x0, symName: __ZNSt3__16vectorINS_4listIN5Graph4EdgeENS_9allocatorIS3_EEEENS4_IS6_EEE21_ConstructTransactionC1B8ue170006ERS8_m, symObjAddr: 0x7280, symBinAddr: 0x100008974, symSize: 0x3C }
  - { offsetInCU: 0x1C9A1, offset: 0x1C9A1, size: 0x8, addend: 0x0, symName: __ZNSt3__116allocator_traitsINS_9allocatorINS_4listIN5Graph4EdgeENS1_IS4_EEEEEEE9constructB8ue170006IS6_JRKS6_EvEEvRS7_PT_DpOT0_, symObjAddr: 0x72BC, symBinAddr: 0x1000089B0, symSize: 0x34 }
  - { offsetInCU: 0x1C9F8, offset: 0x1C9F8, size: 0x8, addend: 0x0, symName: __ZNSt3__16vectorINS_4listIN5Graph4EdgeENS_9allocatorIS3_EEEENS4_IS6_EEE7__allocB8ue170006Ev, symObjAddr: 0x72F0, symBinAddr: 0x1000089E4, symSize: 0x28 }
  - { offsetInCU: 0x1CA1E, offset: 0x1CA1E, size: 0x8, addend: 0x0, symName: __ZNSt3__16vectorINS_4listIN5Graph4EdgeENS_9allocatorIS3_EEEENS4_IS6_EEE21_ConstructTransactionD1B8ue170006Ev, symObjAddr: 0x732C, symBinAddr: 0x100008A20, symSize: 0x2C }
  - { offsetInCU: 0x1CA48, offset: 0x1CA48, size: 0x8, addend: 0x0, symName: __ZNSt3__16vectorINS_4listIN5Graph4EdgeENS_9allocatorIS3_EEEENS4_IS6_EEE21_ConstructTransactionC2B8ue170006ERS8_m, symObjAddr: 0x7358, symBinAddr: 0x100008A4C, symSize: 0x4C }
  - { offsetInCU: 0x1CA90, offset: 0x1CA90, size: 0x8, addend: 0x0, symName: __ZNSt3__19allocatorINS_4listIN5Graph4EdgeENS0_IS3_EEEEE9constructB8ue170006IS5_JRKS5_EEEvPT_DpOT0_, symObjAddr: 0x73A4, symBinAddr: 0x100008A98, symSize: 0x30 }
  - { offsetInCU: 0x1CAE6, offset: 0x1CAE6, size: 0x8, addend: 0x0, symName: __ZNSt3__14listIN5Graph4EdgeENS_9allocatorIS2_EEEC1ERKS5_, symObjAddr: 0x73D4, symBinAddr: 0x100008AC8, symSize: 0x34 }
  - { offsetInCU: 0x1CB21, offset: 0x1CB21, size: 0x8, addend: 0x0, symName: __ZNSt3__14listIN5Graph4EdgeENS_9allocatorIS2_EEEC2ERKS5_, symObjAddr: 0x7408, symBinAddr: 0x100008AFC, symSize: 0xDC }
  - { offsetInCU: 0x1CB88, offset: 0x1CB88, size: 0x8, addend: 0x0, symName: __ZNSt3__116allocator_traitsINS_9allocatorINS_11__list_nodeIN5Graph4EdgeEPvEEEEE37select_on_container_copy_constructionB8ue170006IS7_vvEES7_RKS7_, symObjAddr: 0x74E4, symBinAddr: 0x100008BD8, symSize: 0x10 }
  - { offsetInCU: 0x1CBB7, offset: 0x1CBB7, size: 0x8, addend: 0x0, symName: __ZNKSt3__110__list_impIN5Graph4EdgeENS_9allocatorIS2_EEE12__node_allocB8ue170006Ev, symObjAddr: 0x74F4, symBinAddr: 0x100008BE8, symSize: 0x28 }
  - { offsetInCU: 0x1CBDD, offset: 0x1CBDD, size: 0x8, addend: 0x0, symName: __ZNSt3__110__list_impIN5Graph4EdgeENS_9allocatorIS2_EEEC2EONS3_INS_11__list_nodeIS2_PvEEEE, symObjAddr: 0x751C, symBinAddr: 0x100008C10, symSize: 0x54 }
  - { offsetInCU: 0x1CC18, offset: 0x1CC18, size: 0x8, addend: 0x0, symName: __ZNKSt3__14listIN5Graph4EdgeENS_9allocatorIS2_EEE5beginB8ue170006Ev, symObjAddr: 0x7570, symBinAddr: 0x100008C64, symSize: 0x2C }
  - { offsetInCU: 0x1CC3E, offset: 0x1CC3E, size: 0x8, addend: 0x0, symName: __ZNKSt3__14listIN5Graph4EdgeENS_9allocatorIS2_EEE3endB8ue170006Ev, symObjAddr: 0x759C, symBinAddr: 0x100008C90, symSize: 0x2C }
  - { offsetInCU: 0x1CC64, offset: 0x1CC64, size: 0x8, addend: 0x0, symName: __ZNSt3__14listIN5Graph4EdgeENS_9allocatorIS2_EEE9push_backERKS2_, symObjAddr: 0x75FC, symBinAddr: 0x100008CF0, symSize: 0xEC }
  - { offsetInCU: 0x1CCB9, offset: 0x1CCB9, size: 0x8, addend: 0x0, symName: __ZNKSt3__121__list_const_iteratorIN5Graph4EdgeEPvEdeB8ue170006Ev, symObjAddr: 0x76E8, symBinAddr: 0x100008DDC, symSize: 0x2C }
  - { offsetInCU: 0x1CCDF, offset: 0x1CCDF, size: 0x8, addend: 0x0, symName: __ZNSt3__121__list_const_iteratorIN5Graph4EdgeEPvEppB8ue170006Ev, symObjAddr: 0x7714, symBinAddr: 0x100008E08, symSize: 0x20 }
  - { offsetInCU: 0x1CD05, offset: 0x1CD05, size: 0x8, addend: 0x0, symName: __ZNSt3__110__list_impIN5Graph4EdgeENS_9allocatorIS2_EEED2Ev, symObjAddr: 0x7734, symBinAddr: 0x100008E28, symSize: 0x2C }
  - { offsetInCU: 0x1CD31, offset: 0x1CD31, size: 0x8, addend: 0x0, symName: __ZNKSt3__117__compressed_pairImNS_9allocatorINS_11__list_nodeIN5Graph4EdgeEPvEEEEE6secondB8ue170006Ev, symObjAddr: 0x7760, symBinAddr: 0x100008E54, symSize: 0x24 }
  - { offsetInCU: 0x1CD57, offset: 0x1CD57, size: 0x8, addend: 0x0, symName: __ZNKSt3__122__compressed_pair_elemINS_9allocatorINS_11__list_nodeIN5Graph4EdgeEPvEEEELi1ELb1EE5__getB8ue170006Ev, symObjAddr: 0x7784, symBinAddr: 0x100008E78, symSize: 0x14 }
  - { offsetInCU: 0x1CD83, offset: 0x1CD83, size: 0x8, addend: 0x0, symName: __ZNSt3__117__compressed_pairImNS_9allocatorINS_11__list_nodeIN5Graph4EdgeEPvEEEEEC1B8ue170006IiS7_EEOT_OT0_, symObjAddr: 0x7798, symBinAddr: 0x100008E8C, symSize: 0x3C }
  - { offsetInCU: 0x1CDDB, offset: 0x1CDDB, size: 0x8, addend: 0x0, symName: __ZNSt3__117__compressed_pairImNS_9allocatorINS_11__list_nodeIN5Graph4EdgeEPvEEEEEC2B8ue170006IiS7_EEOT_OT0_, symObjAddr: 0x77D4, symBinAddr: 0x100008EC8, symSize: 0x44 }
  - { offsetInCU: 0x1CE33, offset: 0x1CE33, size: 0x8, addend: 0x0, symName: __ZNSt3__122__compressed_pair_elemINS_9allocatorINS_11__list_nodeIN5Graph4EdgeEPvEEEELi1ELb1EEC2B8ue170006IS7_vEEOT_, symObjAddr: 0x7818, symBinAddr: 0x100008F0C, symSize: 0x18 }
  - { offsetInCU: 0x1CE75, offset: 0x1CE75, size: 0x8, addend: 0x0, symName: __ZNKSt3__110__list_impIN5Graph4EdgeENS_9allocatorIS2_EEE5beginB8ue170006Ev, symObjAddr: 0x7830, symBinAddr: 0x100008F24, symSize: 0x30 }
  - { offsetInCU: 0x1CE9B, offset: 0x1CE9B, size: 0x8, addend: 0x0, symName: __ZNSt3__121__list_const_iteratorIN5Graph4EdgeEPvEC1B8ue170006EPNS_16__list_node_baseIS2_S3_EE, symObjAddr: 0x7860, symBinAddr: 0x100008F54, symSize: 0x34 }
  - { offsetInCU: 0x1CED4, offset: 0x1CED4, size: 0x8, addend: 0x0, symName: __ZNSt3__121__list_const_iteratorIN5Graph4EdgeEPvEC2B8ue170006EPNS_16__list_node_baseIS2_S3_EE, symObjAddr: 0x7894, symBinAddr: 0x100008F88, symSize: 0x20 }
  - { offsetInCU: 0x1CF0D, offset: 0x1CF0D, size: 0x8, addend: 0x0, symName: __ZNKSt3__110__list_impIN5Graph4EdgeENS_9allocatorIS2_EEE3endB8ue170006Ev, symObjAddr: 0x78B4, symBinAddr: 0x100008FA8, symSize: 0x34 }
  - { offsetInCU: 0x1CF33, offset: 0x1CF33, size: 0x8, addend: 0x0, symName: __ZNSt3__116allocator_traitsINS_9allocatorINS_11__list_nodeIN5Graph4EdgeEPvEEEEE9constructB8ue170006IS4_JRKS4_EvEEvRS7_PT_DpOT0_, symObjAddr: 0x7918, symBinAddr: 0x10000900C, symSize: 0x34 }
  - { offsetInCU: 0x1CF8A, offset: 0x1CF8A, size: 0x8, addend: 0x0, symName: __ZNSt3__19allocatorINS_11__list_nodeIN5Graph4EdgeEPvEEE9constructB8ue170006IS3_JRKS3_EEEvPT_DpOT0_, symObjAddr: 0x794C, symBinAddr: 0x100009040, symSize: 0x28 }
  - { offsetInCU: 0x1CFE0, offset: 0x1CFE0, size: 0x8, addend: 0x0, symName: __ZNSt3__117__compressed_pairIPNS_4listIN5Graph4EdgeENS_9allocatorIS3_EEEENS4_IS6_EEE6secondB8ue170006Ev, symObjAddr: 0x7974, symBinAddr: 0x100009068, symSize: 0x24 }
  - { offsetInCU: 0x1D006, offset: 0x1D006, size: 0x8, addend: 0x0, symName: __ZNSt3__122__compressed_pair_elemINS_9allocatorINS_4listIN5Graph4EdgeENS1_IS4_EEEEEELi1ELb1EE5__getB8ue170006Ev, symObjAddr: 0x7998, symBinAddr: 0x10000908C, symSize: 0x14 }
  - { offsetInCU: 0x1D02C, offset: 0x1D02C, size: 0x8, addend: 0x0, symName: __ZNSt3__16vectorINS_4listIN5Graph4EdgeENS_9allocatorIS3_EEEENS4_IS6_EEE21_ConstructTransactionD2B8ue170006Ev, symObjAddr: 0x79AC, symBinAddr: 0x1000090A0, symSize: 0x20 }
  - { offsetInCU: 0x1D056, offset: 0x1D056, size: 0x8, addend: 0x0, symName: __ZNKSt3__16vectorINS_4listIN5Graph4EdgeENS_9allocatorIS3_EEEENS4_IS6_EEE11__recommendB8ue170006Em, symObjAddr: 0x79CC, symBinAddr: 0x1000090C0, symSize: 0xB4 }
  - { offsetInCU: 0x1D0AB, offset: 0x1D0AB, size: 0x8, addend: 0x0, symName: __ZNSt3__114__split_bufferINS_4listIN5Graph4EdgeENS_9allocatorIS3_EEEERNS4_IS6_EEEC1EmmS8_, symObjAddr: 0x7A80, symBinAddr: 0x100009174, symSize: 0x44 }
  - { offsetInCU: 0x1D101, offset: 0x1D101, size: 0x8, addend: 0x0, symName: __ZNSt3__114__split_bufferINS_4listIN5Graph4EdgeENS_9allocatorIS3_EEEERNS4_IS6_EEED1Ev, symObjAddr: 0x7BD4, symBinAddr: 0x1000092C8, symSize: 0x2C }
  - { offsetInCU: 0x1D12D, offset: 0x1D12D, size: 0x8, addend: 0x0, symName: __ZNKSt3__16vectorINS_4listIN5Graph4EdgeENS_9allocatorIS3_EEEENS4_IS6_EEE8max_sizeEv, symObjAddr: 0x7C00, symBinAddr: 0x1000092F4, symSize: 0x60 }
  - { offsetInCU: 0x1D155, offset: 0x1D155, size: 0x8, addend: 0x0, symName: __ZNKSt3__16vectorINS_4listIN5Graph4EdgeENS_9allocatorIS3_EEEENS4_IS6_EEE20__throw_length_errorB8ue170006Ev, symObjAddr: 0x7C60, symBinAddr: 0x100009354, symSize: 0x1C }
  - { offsetInCU: 0x1D17B, offset: 0x1D17B, size: 0x8, addend: 0x0, symName: __ZNKSt3__16vectorINS_4listIN5Graph4EdgeENS_9allocatorIS3_EEEENS4_IS6_EEE8capacityB8ue170006Ev, symObjAddr: 0x7C7C, symBinAddr: 0x100009370, symSize: 0x40 }
  - { offsetInCU: 0x1D1AC, offset: 0x1D1AC, size: 0x8, addend: 0x0, symName: __ZNSt3__116allocator_traitsINS_9allocatorINS_4listIN5Graph4EdgeENS1_IS4_EEEEEEE8max_sizeB8ue170006IS7_vEEmRKS7_, symObjAddr: 0x7CBC, symBinAddr: 0x1000093B0, symSize: 0x24 }
  - { offsetInCU: 0x1D1DA, offset: 0x1D1DA, size: 0x8, addend: 0x0, symName: __ZNKSt3__16vectorINS_4listIN5Graph4EdgeENS_9allocatorIS3_EEEENS4_IS6_EEE7__allocB8ue170006Ev, symObjAddr: 0x7CE0, symBinAddr: 0x1000093D4, symSize: 0x28 }
  - { offsetInCU: 0x1D200, offset: 0x1D200, size: 0x8, addend: 0x0, symName: __ZNKSt3__19allocatorINS_4listIN5Graph4EdgeENS0_IS3_EEEEE8max_sizeB8ue170006Ev, symObjAddr: 0x7D08, symBinAddr: 0x1000093FC, symSize: 0x18 }
  - { offsetInCU: 0x1D226, offset: 0x1D226, size: 0x8, addend: 0x0, symName: __ZNKSt3__117__compressed_pairIPNS_4listIN5Graph4EdgeENS_9allocatorIS3_EEEENS4_IS6_EEE6secondB8ue170006Ev, symObjAddr: 0x7D20, symBinAddr: 0x100009414, symSize: 0x24 }
  - { offsetInCU: 0x1D24C, offset: 0x1D24C, size: 0x8, addend: 0x0, symName: __ZNKSt3__122__compressed_pair_elemINS_9allocatorINS_4listIN5Graph4EdgeENS1_IS4_EEEEEELi1ELb1EE5__getB8ue170006Ev, symObjAddr: 0x7D44, symBinAddr: 0x100009438, symSize: 0x14 }
  - { offsetInCU: 0x1D272, offset: 0x1D272, size: 0x8, addend: 0x0, symName: __ZNKSt3__16vectorINS_4listIN5Graph4EdgeENS_9allocatorIS3_EEEENS4_IS6_EEE9__end_capB8ue170006Ev, symObjAddr: 0x7D58, symBinAddr: 0x10000944C, symSize: 0x28 }
  - { offsetInCU: 0x1D298, offset: 0x1D298, size: 0x8, addend: 0x0, symName: __ZNKSt3__117__compressed_pairIPNS_4listIN5Graph4EdgeENS_9allocatorIS3_EEEENS4_IS6_EEE5firstB8ue170006Ev, symObjAddr: 0x7D80, symBinAddr: 0x100009474, symSize: 0x24 }
  - { offsetInCU: 0x1D2BE, offset: 0x1D2BE, size: 0x8, addend: 0x0, symName: __ZNKSt3__122__compressed_pair_elemIPNS_4listIN5Graph4EdgeENS_9allocatorIS3_EEEELi0ELb0EE5__getB8ue170006Ev, symObjAddr: 0x7DA4, symBinAddr: 0x100009498, symSize: 0x14 }
  - { offsetInCU: 0x1D2E4, offset: 0x1D2E4, size: 0x8, addend: 0x0, symName: __ZNSt3__114__split_bufferINS_4listIN5Graph4EdgeENS_9allocatorIS3_EEEERNS4_IS6_EEEC2EmmS8_, symObjAddr: 0x7DB8, symBinAddr: 0x1000094AC, symSize: 0xE0 }
  - { offsetInCU: 0x1D357, offset: 0x1D357, size: 0x8, addend: 0x0, symName: __ZNSt3__117__compressed_pairIPNS_4listIN5Graph4EdgeENS_9allocatorIS3_EEEERNS4_IS6_EEEC1B8ue170006IDnS9_EEOT_OT0_, symObjAddr: 0x7E98, symBinAddr: 0x10000958C, symSize: 0x3C }
  - { offsetInCU: 0x1D3AF, offset: 0x1D3AF, size: 0x8, addend: 0x0, symName: __ZNSt3__114__split_bufferINS_4listIN5Graph4EdgeENS_9allocatorIS3_EEEERNS4_IS6_EEE7__allocB8ue170006Ev, symObjAddr: 0x7F14, symBinAddr: 0x100009608, symSize: 0x28 }
  - { offsetInCU: 0x1D3D5, offset: 0x1D3D5, size: 0x8, addend: 0x0, symName: __ZNSt3__114__split_bufferINS_4listIN5Graph4EdgeENS_9allocatorIS3_EEEERNS4_IS6_EEE9__end_capB8ue170006Ev, symObjAddr: 0x7F3C, symBinAddr: 0x100009630, symSize: 0x28 }
  - { offsetInCU: 0x1D3FB, offset: 0x1D3FB, size: 0x8, addend: 0x0, symName: __ZNSt3__117__compressed_pairIPNS_4listIN5Graph4EdgeENS_9allocatorIS3_EEEERNS4_IS6_EEEC2B8ue170006IDnS9_EEOT_OT0_, symObjAddr: 0x7F64, symBinAddr: 0x100009658, symSize: 0x48 }
  - { offsetInCU: 0x1D453, offset: 0x1D453, size: 0x8, addend: 0x0, symName: __ZNSt3__122__compressed_pair_elemIRNS_9allocatorINS_4listIN5Graph4EdgeENS1_IS4_EEEEEELi1ELb0EEC2B8ue170006IS8_vEEOT_, symObjAddr: 0x7FAC, symBinAddr: 0x1000096A0, symSize: 0x20 }
  - { offsetInCU: 0x1D495, offset: 0x1D495, size: 0x8, addend: 0x0, symName: __ZNSt3__19allocatorINS_4listIN5Graph4EdgeENS0_IS3_EEEEE8allocateB8ue170006Em, symObjAddr: 0x7FCC, symBinAddr: 0x1000096C0, symSize: 0x5C }
  - { offsetInCU: 0x1D4C9, offset: 0x1D4C9, size: 0x8, addend: 0x0, symName: __ZNSt3__117__compressed_pairIPNS_4listIN5Graph4EdgeENS_9allocatorIS3_EEEERNS4_IS6_EEE6secondB8ue170006Ev, symObjAddr: 0x8028, symBinAddr: 0x10000971C, symSize: 0x28 }
  - { offsetInCU: 0x1D4EF, offset: 0x1D4EF, size: 0x8, addend: 0x0, symName: __ZNSt3__122__compressed_pair_elemIRNS_9allocatorINS_4listIN5Graph4EdgeENS1_IS4_EEEEEELi1ELb0EE5__getB8ue170006Ev, symObjAddr: 0x8050, symBinAddr: 0x100009744, symSize: 0x18 }
  - { offsetInCU: 0x1D515, offset: 0x1D515, size: 0x8, addend: 0x0, symName: __ZNSt3__117__compressed_pairIPNS_4listIN5Graph4EdgeENS_9allocatorIS3_EEEERNS4_IS6_EEE5firstB8ue170006Ev, symObjAddr: 0x8068, symBinAddr: 0x10000975C, symSize: 0x24 }
  - { offsetInCU: 0x1D53B, offset: 0x1D53B, size: 0x8, addend: 0x0, symName: __ZNKSt3__16vectorINS_4listIN5Graph4EdgeENS_9allocatorIS3_EEEENS4_IS6_EEE17__annotate_deleteB8ue170006Ev, symObjAddr: 0x808C, symBinAddr: 0x100009780, symSize: 0xD4 }
  - { offsetInCU: 0x1D561, offset: 0x1D561, size: 0x8, addend: 0x0, symName: __ZNSt3__116reverse_iteratorIPNS_4listIN5Graph4EdgeENS_9allocatorIS3_EEEEEC1B8ue170006ES7_, symObjAddr: 0x828C, symBinAddr: 0x100009980, symSize: 0x34 }
  - { offsetInCU: 0x1D599, offset: 0x1D599, size: 0x8, addend: 0x0, symName: __ZNKSt3__116reverse_iteratorIPNS_4listIN5Graph4EdgeENS_9allocatorIS3_EEEEE4baseB8ue170006Ev, symObjAddr: 0x82C0, symBinAddr: 0x1000099B4, symSize: 0x18 }
  - { offsetInCU: 0x1D5BF, offset: 0x1D5BF, size: 0x8, addend: 0x0, symName: __ZNKSt3__16vectorINS_4listIN5Graph4EdgeENS_9allocatorIS3_EEEENS4_IS6_EEE14__annotate_newB8ue170006Em, symObjAddr: 0x8314, symBinAddr: 0x100009A08, symSize: 0xC8 }
  - { offsetInCU: 0x1D5F4, offset: 0x1D5F4, size: 0x8, addend: 0x0, symName: __ZNKSt3__16vectorINS_4listIN5Graph4EdgeENS_9allocatorIS3_EEEENS4_IS6_EEE31__annotate_contiguous_containerB8ue170006EPKvSA_SA_SA_, symObjAddr: 0x83DC, symBinAddr: 0x100009AD0, symSize: 0x20 }
  - { offsetInCU: 0x1D646, offset: 0x1D646, size: 0x8, addend: 0x0, symName: __ZNKSt3__16vectorINS_4listIN5Graph4EdgeENS_9allocatorIS3_EEEENS4_IS6_EEE4dataB8ue170006Ev, symObjAddr: 0x83FC, symBinAddr: 0x100009AF0, symSize: 0x28 }
  - { offsetInCU: 0x1D66C, offset: 0x1D66C, size: 0x8, addend: 0x0, symName: __ZNSt3__129_AllocatorDestroyRangeReverseINS_9allocatorINS_4listIN5Graph4EdgeENS1_IS4_EEEEEENS_16reverse_iteratorIPS6_EEEC1B8ue170006ERS7_RSA_SD_, symObjAddr: 0x8470, symBinAddr: 0x100009B64, symSize: 0x44 }
  - { offsetInCU: 0x1D6C3, offset: 0x1D6C3, size: 0x8, addend: 0x0, symName: __ZNSt3__116allocator_traitsINS_9allocatorINS_4listIN5Graph4EdgeENS1_IS4_EEEEEEE9constructB8ue170006IS6_JS6_EvEEvRS7_PT_DpOT0_, symObjAddr: 0x84FC, symBinAddr: 0x100009BF0, symSize: 0x34 }
  - { offsetInCU: 0x1D71A, offset: 0x1D71A, size: 0x8, addend: 0x0, symName: __ZNKSt3__116reverse_iteratorIPNS_4listIN5Graph4EdgeENS_9allocatorIS3_EEEEEdeB8ue170006Ev, symObjAddr: 0x8554, symBinAddr: 0x100009C48, symSize: 0x28 }
  - { offsetInCU: 0x1D74E, offset: 0x1D74E, size: 0x8, addend: 0x0, symName: __ZNSt3__116reverse_iteratorIPNS_4listIN5Graph4EdgeENS_9allocatorIS3_EEEEEppB8ue170006Ev, symObjAddr: 0x857C, symBinAddr: 0x100009C70, symSize: 0x20 }
  - { offsetInCU: 0x1D774, offset: 0x1D774, size: 0x8, addend: 0x0, symName: __ZNSt3__128__exception_guard_exceptionsINS_29_AllocatorDestroyRangeReverseINS_9allocatorINS_4listIN5Graph4EdgeENS2_IS5_EEEEEENS_16reverse_iteratorIPS7_EEEEE10__completeB8ue170006Ev, symObjAddr: 0x859C, symBinAddr: 0x100009C90, symSize: 0x1C }
  - { offsetInCU: 0x1D79A, offset: 0x1D79A, size: 0x8, addend: 0x0, symName: __ZNSt3__128__exception_guard_exceptionsINS_29_AllocatorDestroyRangeReverseINS_9allocatorINS_4listIN5Graph4EdgeENS2_IS5_EEEEEENS_16reverse_iteratorIPS7_EEEEED1B8ue170006Ev, symObjAddr: 0x85B8, symBinAddr: 0x100009CAC, symSize: 0x2C }
  - { offsetInCU: 0x1D7C4, offset: 0x1D7C4, size: 0x8, addend: 0x0, symName: __ZNSt3__128__exception_guard_exceptionsINS_29_AllocatorDestroyRangeReverseINS_9allocatorINS_4listIN5Graph4EdgeENS2_IS5_EEEEEENS_16reverse_iteratorIPS7_EEEEEC1B8ue170006ESC_, symObjAddr: 0x85E4, symBinAddr: 0x100009CD8, symSize: 0x34 }
  - { offsetInCU: 0x1D7FD, offset: 0x1D7FD, size: 0x8, addend: 0x0, symName: __ZNSt3__128__exception_guard_exceptionsINS_29_AllocatorDestroyRangeReverseINS_9allocatorINS_4listIN5Graph4EdgeENS2_IS5_EEEEEENS_16reverse_iteratorIPS7_EEEEEC2B8ue170006ESC_, symObjAddr: 0x8618, symBinAddr: 0x100009D0C, symSize: 0x30 }
  - { offsetInCU: 0x1D836, offset: 0x1D836, size: 0x8, addend: 0x0, symName: __ZNSt3__129_AllocatorDestroyRangeReverseINS_9allocatorINS_4listIN5Graph4EdgeENS1_IS4_EEEEEENS_16reverse_iteratorIPS6_EEEC2B8ue170006ERS7_RSA_SD_, symObjAddr: 0x8648, symBinAddr: 0x100009D3C, symSize: 0x38 }
  - { offsetInCU: 0x1D88D, offset: 0x1D88D, size: 0x8, addend: 0x0, symName: __ZNSt3__19allocatorINS_4listIN5Graph4EdgeENS0_IS3_EEEEE9constructB8ue170006IS5_JS5_EEEvPT_DpOT0_, symObjAddr: 0x8680, symBinAddr: 0x100009D74, symSize: 0x30 }
  - { offsetInCU: 0x1D8E3, offset: 0x1D8E3, size: 0x8, addend: 0x0, symName: __ZNSt3__14listIN5Graph4EdgeENS_9allocatorIS2_EEEC1EOS5_, symObjAddr: 0x86B0, symBinAddr: 0x100009DA4, symSize: 0x34 }
  - { offsetInCU: 0x1D91E, offset: 0x1D91E, size: 0x8, addend: 0x0, symName: __ZNSt3__14listIN5Graph4EdgeENS_9allocatorIS2_EEEC2EOS5_, symObjAddr: 0x86E4, symBinAddr: 0x100009DD8, symSize: 0x70 }
  - { offsetInCU: 0x1D959, offset: 0x1D959, size: 0x8, addend: 0x0, symName: __ZNSt3__14listIN5Graph4EdgeENS_9allocatorIS2_EEE6spliceENS_21__list_const_iteratorIS2_PvEERS5_, symObjAddr: 0x8754, symBinAddr: 0x100009E48, symSize: 0xAC }
  - { offsetInCU: 0x1D9CB, offset: 0x1D9CB, size: 0x8, addend: 0x0, symName: __ZNSt3__121__list_const_iteratorIN5Graph4EdgeEPvEC1B8ue170006ERKNS_15__list_iteratorIS2_S3_EE, symObjAddr: 0x8800, symBinAddr: 0x100009EF4, symSize: 0x34 }
  - { offsetInCU: 0x1DA04, offset: 0x1DA04, size: 0x8, addend: 0x0, symName: __ZNKSt3__14listIN5Graph4EdgeENS_9allocatorIS2_EEE5emptyB8ue170006Ev, symObjAddr: 0x8834, symBinAddr: 0x100009F28, symSize: 0x28 }
  - { offsetInCU: 0x1DA2A, offset: 0x1DA2A, size: 0x8, addend: 0x0, symName: __ZNSt3__14listIN5Graph4EdgeENS_9allocatorIS2_EEE12__link_nodesEPNS_16__list_node_baseIS2_PvEES9_S9_, symObjAddr: 0x885C, symBinAddr: 0x100009F50, symSize: 0x50 }
  - { offsetInCU: 0x1DA6E, offset: 0x1DA6E, size: 0x8, addend: 0x0, symName: __ZNSt3__121__list_const_iteratorIN5Graph4EdgeEPvEC2B8ue170006ERKNS_15__list_iteratorIS2_S3_EE, symObjAddr: 0x88AC, symBinAddr: 0x100009FA0, symSize: 0x24 }
  - { offsetInCU: 0x1DAAD, offset: 0x1DAAD, size: 0x8, addend: 0x0, symName: __ZNSt3__119__to_address_helperINS_16reverse_iteratorIPNS_4listIN5Graph4EdgeENS_9allocatorIS4_EEEEEEvE6__callB8ue170006ERKS9_, symObjAddr: 0x88D0, symBinAddr: 0x100009FC4, symSize: 0x38 }
  - { offsetInCU: 0x1DAD0, offset: 0x1DAD0, size: 0x8, addend: 0x0, symName: __ZNKSt3__116reverse_iteratorIPNS_4listIN5Graph4EdgeENS_9allocatorIS3_EEEEEptB8ue170006Ev, symObjAddr: 0x8908, symBinAddr: 0x100009FFC, symSize: 0x24 }
  - { offsetInCU: 0x1DAF6, offset: 0x1DAF6, size: 0x8, addend: 0x0, symName: __ZNSt3__128__exception_guard_exceptionsINS_29_AllocatorDestroyRangeReverseINS_9allocatorINS_4listIN5Graph4EdgeENS2_IS5_EEEEEENS_16reverse_iteratorIPS7_EEEEED2B8ue170006Ev, symObjAddr: 0x892C, symBinAddr: 0x10000A020, symSize: 0x50 }
  - { offsetInCU: 0x1DB20, offset: 0x1DB20, size: 0x8, addend: 0x0, symName: __ZNKSt3__129_AllocatorDestroyRangeReverseINS_9allocatorINS_4listIN5Graph4EdgeENS1_IS4_EEEEEENS_16reverse_iteratorIPS6_EEEclB8ue170006Ev, symObjAddr: 0x897C, symBinAddr: 0x10000A070, symSize: 0xB4 }
  - { offsetInCU: 0x1DB47, offset: 0x1DB47, size: 0x8, addend: 0x0, symName: __ZNSt3__116reverse_iteratorINS0_IPNS_4listIN5Graph4EdgeENS_9allocatorIS3_EEEEEEEC1B8ue170006ES8_, symObjAddr: 0x8AA0, symBinAddr: 0x10000A194, symSize: 0x3C }
  - { offsetInCU: 0x1DB7F, offset: 0x1DB7F, size: 0x8, addend: 0x0, symName: __ZNSt3__116allocator_traitsINS_9allocatorINS_4listIN5Graph4EdgeENS1_IS4_EEEEEEE7destroyB8ue170006IS6_vEEvRS7_PT_, symObjAddr: 0x8B3C, symBinAddr: 0x10000A230, symSize: 0x2C }
  - { offsetInCU: 0x1DBBC, offset: 0x1DBBC, size: 0x8, addend: 0x0, symName: __ZNSt3__116reverse_iteratorINS0_IPNS_4listIN5Graph4EdgeENS_9allocatorIS3_EEEEEEEppB8ue170006Ev, symObjAddr: 0x8B8C, symBinAddr: 0x10000A280, symSize: 0x30 }
  - { offsetInCU: 0x1DBE2, offset: 0x1DBE2, size: 0x8, addend: 0x0, symName: __ZNKSt3__116reverse_iteratorINS0_IPNS_4listIN5Graph4EdgeENS_9allocatorIS3_EEEEEEE4baseB8ue170006Ev, symObjAddr: 0x8BBC, symBinAddr: 0x10000A2B0, symSize: 0x24 }
  - { offsetInCU: 0x1DC08, offset: 0x1DC08, size: 0x8, addend: 0x0, symName: __ZNSt3__19allocatorINS_4listIN5Graph4EdgeENS0_IS3_EEEEE7destroyB8ue170006EPS5_, symObjAddr: 0x8BE0, symBinAddr: 0x10000A2D4, symSize: 0x28 }
  - { offsetInCU: 0x1DC42, offset: 0x1DC42, size: 0x8, addend: 0x0, symName: __ZNSt3__119__to_address_helperINS_16reverse_iteratorINS1_IPNS_4listIN5Graph4EdgeENS_9allocatorIS4_EEEEEEEEvE6__callB8ue170006ERKSA_, symObjAddr: 0x8C08, symBinAddr: 0x10000A2FC, symSize: 0x38 }
  - { offsetInCU: 0x1DC65, offset: 0x1DC65, size: 0x8, addend: 0x0, symName: __ZNKSt3__116reverse_iteratorINS0_IPNS_4listIN5Graph4EdgeENS_9allocatorIS3_EEEEEEEptB8ue170006Ev, symObjAddr: 0x8C40, symBinAddr: 0x10000A334, symSize: 0x24 }
  - { offsetInCU: 0x1DC8B, offset: 0x1DC8B, size: 0x8, addend: 0x0, symName: __ZNKSt3__116reverse_iteratorINS0_IPNS_4listIN5Graph4EdgeENS_9allocatorIS3_EEEEEEEdeB8ue170006Ev, symObjAddr: 0x8C64, symBinAddr: 0x10000A358, symSize: 0x34 }
  - { offsetInCU: 0x1DCBF, offset: 0x1DCBF, size: 0x8, addend: 0x0, symName: __ZNSt3__116reverse_iteratorIPNS_4listIN5Graph4EdgeENS_9allocatorIS3_EEEEEmmB8ue170006Ev, symObjAddr: 0x8C98, symBinAddr: 0x10000A38C, symSize: 0x20 }
  - { offsetInCU: 0x1DCE5, offset: 0x1DCE5, size: 0x8, addend: 0x0, symName: __ZNSt3__116reverse_iteratorINS0_IPNS_4listIN5Graph4EdgeENS_9allocatorIS3_EEEEEEEC2B8ue170006ES8_, symObjAddr: 0x8CB8, symBinAddr: 0x10000A3AC, symSize: 0x2C }
  - { offsetInCU: 0x1DD1D, offset: 0x1DD1D, size: 0x8, addend: 0x0, symName: __ZNSt3__116reverse_iteratorIPNS_4listIN5Graph4EdgeENS_9allocatorIS3_EEEEEC2B8ue170006ES7_, symObjAddr: 0x8CE4, symBinAddr: 0x10000A3D8, symSize: 0x28 }
  - { offsetInCU: 0x1DD55, offset: 0x1DD55, size: 0x8, addend: 0x0, symName: __ZNSt3__114__split_bufferINS_4listIN5Graph4EdgeENS_9allocatorIS3_EEEERNS4_IS6_EEED2Ev, symObjAddr: 0x8D0C, symBinAddr: 0x10000A400, symSize: 0x8C }
  - { offsetInCU: 0x1DD81, offset: 0x1DD81, size: 0x8, addend: 0x0, symName: __ZNSt3__114__split_bufferINS_4listIN5Graph4EdgeENS_9allocatorIS3_EEEERNS4_IS6_EEE5clearB8ue170006Ev, symObjAddr: 0x8D98, symBinAddr: 0x10000A48C, symSize: 0x28 }
  - { offsetInCU: 0x1DDA7, offset: 0x1DDA7, size: 0x8, addend: 0x0, symName: __ZNSt3__116allocator_traitsINS_9allocatorINS_4listIN5Graph4EdgeENS1_IS4_EEEEEEE10deallocateB8ue170006ERS7_PS6_m, symObjAddr: 0x8DC0, symBinAddr: 0x10000A4B4, symSize: 0x34 }
  - { offsetInCU: 0x1DDE9, offset: 0x1DDE9, size: 0x8, addend: 0x0, symName: __ZNKSt3__114__split_bufferINS_4listIN5Graph4EdgeENS_9allocatorIS3_EEEERNS4_IS6_EEE8capacityB8ue170006Ev, symObjAddr: 0x8DF4, symBinAddr: 0x10000A4E8, symSize: 0x40 }
  - { offsetInCU: 0x1DE0F, offset: 0x1DE0F, size: 0x8, addend: 0x0, symName: __ZNSt3__114__split_bufferINS_4listIN5Graph4EdgeENS_9allocatorIS3_EEEERNS4_IS6_EEE17__destruct_at_endB8ue170006EPS6_, symObjAddr: 0x8E34, symBinAddr: 0x10000A528, symSize: 0x2C }
  - { offsetInCU: 0x1DE43, offset: 0x1DE43, size: 0x8, addend: 0x0, symName: __ZNSt3__114__split_bufferINS_4listIN5Graph4EdgeENS_9allocatorIS3_EEEERNS4_IS6_EEE17__destruct_at_endB8ue170006EPS6_NS_17integral_constantIbLb0EEE, symObjAddr: 0x8E60, symBinAddr: 0x10000A554, symSize: 0x80 }
  - { offsetInCU: 0x1DE84, offset: 0x1DE84, size: 0x8, addend: 0x0, symName: __ZNSt3__19allocatorINS_4listIN5Graph4EdgeENS0_IS3_EEEEE10deallocateB8ue170006EPS5_m, symObjAddr: 0x8EE0, symBinAddr: 0x10000A5D4, symSize: 0x44 }
  - { offsetInCU: 0x1DEC6, offset: 0x1DEC6, size: 0x8, addend: 0x0, symName: __ZNKSt3__114__split_bufferINS_4listIN5Graph4EdgeENS_9allocatorIS3_EEEERNS4_IS6_EEE9__end_capB8ue170006Ev, symObjAddr: 0x8F24, symBinAddr: 0x10000A618, symSize: 0x28 }
  - { offsetInCU: 0x1DEEC, offset: 0x1DEEC, size: 0x8, addend: 0x0, symName: __ZNKSt3__117__compressed_pairIPNS_4listIN5Graph4EdgeENS_9allocatorIS3_EEEERNS4_IS6_EEE5firstB8ue170006Ev, symObjAddr: 0x8F4C, symBinAddr: 0x10000A640, symSize: 0x24 }
  - { offsetInCU: 0x1DF12, offset: 0x1DF12, size: 0x8, addend: 0x0, symName: __ZNSt3__14listIN5Graph4EdgeENS_9allocatorIS2_EEED2Ev, symObjAddr: 0x8F70, symBinAddr: 0x10000A664, symSize: 0x2C }
  - { offsetInCU: 0x1DF3F, offset: 0x1DF3F, size: 0x8, addend: 0x0, symName: __ZNSt3__16vectorIiNS_9allocatorIiEEED2B8ue170006Ev, symObjAddr: 0x8F9C, symBinAddr: 0x10000A690, symSize: 0x44 }
  - { offsetInCU: 0x1DF69, offset: 0x1DF69, size: 0x8, addend: 0x0, symName: __ZNSt3__16vectorIiNS_9allocatorIiEEE16__destroy_vectorC1B8ue170006ERS3_, symObjAddr: 0x8FE0, symBinAddr: 0x10000A6D4, symSize: 0x34 }
  - { offsetInCU: 0x1DFA2, offset: 0x1DFA2, size: 0x8, addend: 0x0, symName: __ZNSt3__16vectorIiNS_9allocatorIiEEE16__destroy_vectorclB8ue170006Ev, symObjAddr: 0x9014, symBinAddr: 0x10000A708, symSize: 0x90 }
  - { offsetInCU: 0x1DFC8, offset: 0x1DFC8, size: 0x8, addend: 0x0, symName: __ZNSt3__16vectorIiNS_9allocatorIiEEE16__destroy_vectorC2B8ue170006ERS3_, symObjAddr: 0x90A4, symBinAddr: 0x10000A798, symSize: 0x20 }
  - { offsetInCU: 0x1E001, offset: 0x1E001, size: 0x8, addend: 0x0, symName: __ZNSt3__16vectorIiNS_9allocatorIiEEE7__clearB8ue170006Ev, symObjAddr: 0x90C4, symBinAddr: 0x10000A7B8, symSize: 0x28 }
  - { offsetInCU: 0x1E027, offset: 0x1E027, size: 0x8, addend: 0x0, symName: __ZNKSt3__16vectorIiNS_9allocatorIiEEE17__annotate_deleteB8ue170006Ev, symObjAddr: 0x90EC, symBinAddr: 0x10000A7E0, symSize: 0xB8 }
  - { offsetInCU: 0x1E04D, offset: 0x1E04D, size: 0x8, addend: 0x0, symName: __ZNSt3__116allocator_traitsINS_9allocatorIiEEE10deallocateB8ue170006ERS2_Pim, symObjAddr: 0x91A4, symBinAddr: 0x10000A898, symSize: 0x34 }
  - { offsetInCU: 0x1E08F, offset: 0x1E08F, size: 0x8, addend: 0x0, symName: __ZNSt3__16vectorIiNS_9allocatorIiEEE7__allocB8ue170006Ev, symObjAddr: 0x91D8, symBinAddr: 0x10000A8CC, symSize: 0x28 }
  - { offsetInCU: 0x1E0B5, offset: 0x1E0B5, size: 0x8, addend: 0x0, symName: __ZNKSt3__16vectorIiNS_9allocatorIiEEE8capacityB8ue170006Ev, symObjAddr: 0x9200, symBinAddr: 0x10000A8F4, symSize: 0x40 }
  - { offsetInCU: 0x1E0DB, offset: 0x1E0DB, size: 0x8, addend: 0x0, symName: __ZNSt3__16vectorIiNS_9allocatorIiEEE22__base_destruct_at_endB8ue170006EPi, symObjAddr: 0x9240, symBinAddr: 0x10000A934, symSize: 0x8C }
  - { offsetInCU: 0x1E11F, offset: 0x1E11F, size: 0x8, addend: 0x0, symName: __ZNSt3__116allocator_traitsINS_9allocatorIiEEE7destroyB8ue170006IivEEvRS2_PT_, symObjAddr: 0x92CC, symBinAddr: 0x10000A9C0, symSize: 0x2C }
  - { offsetInCU: 0x1E15C, offset: 0x1E15C, size: 0x8, addend: 0x0, symName: __ZNSt3__19allocatorIiE7destroyB8ue170006EPi, symObjAddr: 0x930C, symBinAddr: 0x10000AA00, symSize: 0x14 }
  - { offsetInCU: 0x1E190, offset: 0x1E190, size: 0x8, addend: 0x0, symName: __ZNKSt3__16vectorIiNS_9allocatorIiEEE31__annotate_contiguous_containerB8ue170006EPKvS5_S5_S5_, symObjAddr: 0x9320, symBinAddr: 0x10000AA14, symSize: 0x20 }
  - { offsetInCU: 0x1E1E2, offset: 0x1E1E2, size: 0x8, addend: 0x0, symName: __ZNKSt3__16vectorIiNS_9allocatorIiEEE4dataB8ue170006Ev, symObjAddr: 0x9340, symBinAddr: 0x10000AA34, symSize: 0x28 }
  - { offsetInCU: 0x1E208, offset: 0x1E208, size: 0x8, addend: 0x0, symName: __ZNKSt3__16vectorIiNS_9allocatorIiEEE4sizeB8ue170006Ev, symObjAddr: 0x9368, symBinAddr: 0x10000AA5C, symSize: 0x28 }
  - { offsetInCU: 0x1E22E, offset: 0x1E22E, size: 0x8, addend: 0x0, symName: __ZNSt3__19allocatorIiE10deallocateB8ue170006EPim, symObjAddr: 0x9390, symBinAddr: 0x10000AA84, symSize: 0x40 }
  - { offsetInCU: 0x1E270, offset: 0x1E270, size: 0x8, addend: 0x0, symName: __ZNSt3__117__compressed_pairIPiNS_9allocatorIiEEE6secondB8ue170006Ev, symObjAddr: 0x93D0, symBinAddr: 0x10000AAC4, symSize: 0x24 }
  - { offsetInCU: 0x1E296, offset: 0x1E296, size: 0x8, addend: 0x0, symName: __ZNSt3__122__compressed_pair_elemINS_9allocatorIiEELi1ELb1EE5__getB8ue170006Ev, symObjAddr: 0x93F4, symBinAddr: 0x10000AAE8, symSize: 0x14 }
  - { offsetInCU: 0x1E2BC, offset: 0x1E2BC, size: 0x8, addend: 0x0, symName: __ZNKSt3__16vectorIiNS_9allocatorIiEEE9__end_capB8ue170006Ev, symObjAddr: 0x9408, symBinAddr: 0x10000AAFC, symSize: 0x28 }
  - { offsetInCU: 0x1E2E2, offset: 0x1E2E2, size: 0x8, addend: 0x0, symName: __ZNKSt3__117__compressed_pairIPiNS_9allocatorIiEEE5firstB8ue170006Ev, symObjAddr: 0x9430, symBinAddr: 0x10000AB24, symSize: 0x24 }
  - { offsetInCU: 0x1E308, offset: 0x1E308, size: 0x8, addend: 0x0, symName: __ZNKSt3__122__compressed_pair_elemIPiLi0ELb0EE5__getB8ue170006Ev, symObjAddr: 0x9454, symBinAddr: 0x10000AB48, symSize: 0x14 }
  - { offsetInCU: 0x1E32E, offset: 0x1E32E, size: 0x8, addend: 0x0, symName: __ZNSt3__119basic_istringstreamIcNS_11char_traitsIcEENS_9allocatorIcEEED2Ev, symObjAddr: 0x9468, symBinAddr: 0x10000AB5C, symSize: 0x64 }
  - { offsetInCU: 0x1E368, offset: 0x1E368, size: 0x8, addend: 0x0, symName: __ZTv0_n24_NSt3__119basic_istringstreamIcNS_11char_traitsIcEENS_9allocatorIcEEED1Ev, symObjAddr: 0x94CC, symBinAddr: 0x10000ABC0, symSize: 0x28 }
  - { offsetInCU: 0x1E384, offset: 0x1E384, size: 0x8, addend: 0x0, symName: __ZNSt3__115basic_stringbufIcNS_11char_traitsIcEENS_9allocatorIcEEED1Ev, symObjAddr: 0x94F4, symBinAddr: 0x10000ABE8, symSize: 0x2C }
  - { offsetInCU: 0x1E3B1, offset: 0x1E3B1, size: 0x8, addend: 0x0, symName: __ZNSt3__115basic_stringbufIcNS_11char_traitsIcEENS_9allocatorIcEEED2Ev, symObjAddr: 0x9520, symBinAddr: 0x10000AC14, symSize: 0x48 }
  - { offsetInCU: 0x1E3DE, offset: 0x1E3DE, size: 0x8, addend: 0x0, symName: __ZNKSt3__16vectorINS0_IiNS_9allocatorIiEEEENS1_IS3_EEE4sizeB8ue170006Ev, symObjAddr: 0x9568, symBinAddr: 0x10000AC5C, symSize: 0x28 }
  - { offsetInCU: 0x1E404, offset: 0x1E404, size: 0x8, addend: 0x0, symName: __ZNSt3__16vectorINS0_IiNS_9allocatorIiEEEENS1_IS3_EEE8__appendEm, symObjAddr: 0x9590, symBinAddr: 0x10000AC84, symSize: 0x108 }
  - { offsetInCU: 0x1E45F, offset: 0x1E45F, size: 0x8, addend: 0x0, symName: __ZNSt3__16vectorINS0_IiNS_9allocatorIiEEEENS1_IS3_EEE17__destruct_at_endB8ue170006EPS3_, symObjAddr: 0x9698, symBinAddr: 0x10000AD8C, symSize: 0x4C }
  - { offsetInCU: 0x1E4A3, offset: 0x1E4A3, size: 0x8, addend: 0x0, symName: __ZNSt3__16vectorINS0_IiNS_9allocatorIiEEEENS1_IS3_EEE9__end_capB8ue170006Ev, symObjAddr: 0x96E4, symBinAddr: 0x10000ADD8, symSize: 0x28 }
  - { offsetInCU: 0x1E4C9, offset: 0x1E4C9, size: 0x8, addend: 0x0, symName: __ZNSt3__16vectorINS0_IiNS_9allocatorIiEEEENS1_IS3_EEE18__construct_at_endEm, symObjAddr: 0x970C, symBinAddr: 0x10000AE00, symSize: 0xC8 }
  - { offsetInCU: 0x1E53B, offset: 0x1E53B, size: 0x8, addend: 0x0, symName: __ZNSt3__16vectorINS0_IiNS_9allocatorIiEEEENS1_IS3_EEE7__allocB8ue170006Ev, symObjAddr: 0x97D4, symBinAddr: 0x10000AEC8, symSize: 0x28 }
  - { offsetInCU: 0x1E561, offset: 0x1E561, size: 0x8, addend: 0x0, symName: __ZNKSt3__16vectorINS0_IiNS_9allocatorIiEEEENS1_IS3_EEE11__recommendB8ue170006Em, symObjAddr: 0x97FC, symBinAddr: 0x10000AEF0, symSize: 0xB4 }
  - { offsetInCU: 0x1E5B6, offset: 0x1E5B6, size: 0x8, addend: 0x0, symName: __ZNSt3__114__split_bufferINS_6vectorIiNS_9allocatorIiEEEERNS2_IS4_EEEC1EmmS6_, symObjAddr: 0x98B0, symBinAddr: 0x10000AFA4, symSize: 0x44 }
  - { offsetInCU: 0x1E60C, offset: 0x1E60C, size: 0x8, addend: 0x0, symName: __ZNSt3__114__split_bufferINS_6vectorIiNS_9allocatorIiEEEERNS2_IS4_EEE18__construct_at_endEm, symObjAddr: 0x98F4, symBinAddr: 0x10000AFE8, symSize: 0xB4 }
  - { offsetInCU: 0x1E651, offset: 0x1E651, size: 0x8, addend: 0x0, symName: __ZNSt3__114__split_bufferINS_6vectorIiNS_9allocatorIiEEEERNS2_IS4_EEED1Ev, symObjAddr: 0x9AB8, symBinAddr: 0x10000B1AC, symSize: 0x2C }
  - { offsetInCU: 0x1E67D, offset: 0x1E67D, size: 0x8, addend: 0x0, symName: __ZNSt3__117__compressed_pairIPNS_6vectorIiNS_9allocatorIiEEEENS2_IS4_EEE5firstB8ue170006Ev, symObjAddr: 0x9AE4, symBinAddr: 0x10000B1D8, symSize: 0x24 }
  - { offsetInCU: 0x1E6A3, offset: 0x1E6A3, size: 0x8, addend: 0x0, symName: __ZNSt3__122__compressed_pair_elemIPNS_6vectorIiNS_9allocatorIiEEEELi0ELb0EE5__getB8ue170006Ev, symObjAddr: 0x9B08, symBinAddr: 0x10000B1FC, symSize: 0x14 }
  - { offsetInCU: 0x1E6E4, offset: 0x1E6E4, size: 0x8, addend: 0x0, symName: __ZNSt3__16vectorINS0_IiNS_9allocatorIiEEEENS1_IS3_EEE21_ConstructTransactionC1B8ue170006ERS5_m, symObjAddr: 0x9B1C, symBinAddr: 0x10000B210, symSize: 0x3C }
  - { offsetInCU: 0x1E72C, offset: 0x1E72C, size: 0x8, addend: 0x0, symName: __ZNSt3__116allocator_traitsINS_9allocatorINS_6vectorIiNS1_IiEEEEEEE9constructB8ue170006IS4_JEvEEvRS5_PT_DpOT0_, symObjAddr: 0x9B58, symBinAddr: 0x10000B24C, symSize: 0x2C }
  - { offsetInCU: 0x1E76E, offset: 0x1E76E, size: 0x8, addend: 0x0, symName: __ZNSt3__16vectorINS0_IiNS_9allocatorIiEEEENS1_IS3_EEE21_ConstructTransactionD1B8ue170006Ev, symObjAddr: 0x9B98, symBinAddr: 0x10000B28C, symSize: 0x2C }
  - { offsetInCU: 0x1E798, offset: 0x1E798, size: 0x8, addend: 0x0, symName: __ZNSt3__16vectorINS0_IiNS_9allocatorIiEEEENS1_IS3_EEE21_ConstructTransactionC2B8ue170006ERS5_m, symObjAddr: 0x9BC4, symBinAddr: 0x10000B2B8, symSize: 0x4C }
  - { offsetInCU: 0x1E7E0, offset: 0x1E7E0, size: 0x8, addend: 0x0, symName: __ZNSt3__19allocatorINS_6vectorIiNS0_IiEEEEE9constructB8ue170006IS3_JEEEvPT_DpOT0_, symObjAddr: 0x9C10, symBinAddr: 0x10000B304, symSize: 0x28 }
  - { offsetInCU: 0x1E822, offset: 0x1E822, size: 0x8, addend: 0x0, symName: __ZNSt3__16vectorINS0_IiNS_9allocatorIiEEEENS1_IS3_EEE21_ConstructTransactionD2B8ue170006Ev, symObjAddr: 0x9C38, symBinAddr: 0x10000B32C, symSize: 0x20 }
  - { offsetInCU: 0x1E84C, offset: 0x1E84C, size: 0x8, addend: 0x0, symName: __ZNSt3__117__compressed_pairIPNS_6vectorIiNS_9allocatorIiEEEENS2_IS4_EEE6secondB8ue170006Ev, symObjAddr: 0x9C58, symBinAddr: 0x10000B34C, symSize: 0x24 }
  - { offsetInCU: 0x1E872, offset: 0x1E872, size: 0x8, addend: 0x0, symName: __ZNSt3__122__compressed_pair_elemINS_9allocatorINS_6vectorIiNS1_IiEEEEEELi1ELb1EE5__getB8ue170006Ev, symObjAddr: 0x9C7C, symBinAddr: 0x10000B370, symSize: 0x14 }
  - { offsetInCU: 0x1E898, offset: 0x1E898, size: 0x8, addend: 0x0, symName: __ZNKSt3__16vectorINS0_IiNS_9allocatorIiEEEENS1_IS3_EEE8max_sizeEv, symObjAddr: 0x9C90, symBinAddr: 0x10000B384, symSize: 0x60 }
  - { offsetInCU: 0x1E8C0, offset: 0x1E8C0, size: 0x8, addend: 0x0, symName: __ZNKSt3__16vectorINS0_IiNS_9allocatorIiEEEENS1_IS3_EEE20__throw_length_errorB8ue170006Ev, symObjAddr: 0x9CF0, symBinAddr: 0x10000B3E4, symSize: 0x1C }
  - { offsetInCU: 0x1E8E6, offset: 0x1E8E6, size: 0x8, addend: 0x0, symName: __ZNKSt3__16vectorINS0_IiNS_9allocatorIiEEEENS1_IS3_EEE8capacityB8ue170006Ev, symObjAddr: 0x9D0C, symBinAddr: 0x10000B400, symSize: 0x40 }
  - { offsetInCU: 0x1E917, offset: 0x1E917, size: 0x8, addend: 0x0, symName: __ZNSt3__116allocator_traitsINS_9allocatorINS_6vectorIiNS1_IiEEEEEEE8max_sizeB8ue170006IS5_vEEmRKS5_, symObjAddr: 0x9D4C, symBinAddr: 0x10000B440, symSize: 0x24 }
  - { offsetInCU: 0x1E945, offset: 0x1E945, size: 0x8, addend: 0x0, symName: __ZNKSt3__16vectorINS0_IiNS_9allocatorIiEEEENS1_IS3_EEE7__allocB8ue170006Ev, symObjAddr: 0x9D70, symBinAddr: 0x10000B464, symSize: 0x28 }
  - { offsetInCU: 0x1E96B, offset: 0x1E96B, size: 0x8, addend: 0x0, symName: __ZNKSt3__19allocatorINS_6vectorIiNS0_IiEEEEE8max_sizeB8ue170006Ev, symObjAddr: 0x9D98, symBinAddr: 0x10000B48C, symSize: 0x18 }
  - { offsetInCU: 0x1E991, offset: 0x1E991, size: 0x8, addend: 0x0, symName: __ZNKSt3__117__compressed_pairIPNS_6vectorIiNS_9allocatorIiEEEENS2_IS4_EEE6secondB8ue170006Ev, symObjAddr: 0x9DB0, symBinAddr: 0x10000B4A4, symSize: 0x24 }
  - { offsetInCU: 0x1E9B7, offset: 0x1E9B7, size: 0x8, addend: 0x0, symName: __ZNKSt3__122__compressed_pair_elemINS_9allocatorINS_6vectorIiNS1_IiEEEEEELi1ELb1EE5__getB8ue170006Ev, symObjAddr: 0x9DD4, symBinAddr: 0x10000B4C8, symSize: 0x14 }
  - { offsetInCU: 0x1E9DD, offset: 0x1E9DD, size: 0x8, addend: 0x0, symName: __ZNKSt3__16vectorINS0_IiNS_9allocatorIiEEEENS1_IS3_EEE9__end_capB8ue170006Ev, symObjAddr: 0x9DE8, symBinAddr: 0x10000B4DC, symSize: 0x28 }
  - { offsetInCU: 0x1EA03, offset: 0x1EA03, size: 0x8, addend: 0x0, symName: __ZNKSt3__117__compressed_pairIPNS_6vectorIiNS_9allocatorIiEEEENS2_IS4_EEE5firstB8ue170006Ev, symObjAddr: 0x9E10, symBinAddr: 0x10000B504, symSize: 0x24 }
  - { offsetInCU: 0x1EA29, offset: 0x1EA29, size: 0x8, addend: 0x0, symName: __ZNKSt3__122__compressed_pair_elemIPNS_6vectorIiNS_9allocatorIiEEEELi0ELb0EE5__getB8ue170006Ev, symObjAddr: 0x9E34, symBinAddr: 0x10000B528, symSize: 0x14 }
  - { offsetInCU: 0x1EA4F, offset: 0x1EA4F, size: 0x8, addend: 0x0, symName: __ZNSt3__114__split_bufferINS_6vectorIiNS_9allocatorIiEEEERNS2_IS4_EEEC2EmmS6_, symObjAddr: 0x9E48, symBinAddr: 0x10000B53C, symSize: 0xE0 }
  - { offsetInCU: 0x1EAC2, offset: 0x1EAC2, size: 0x8, addend: 0x0, symName: __ZNSt3__117__compressed_pairIPNS_6vectorIiNS_9allocatorIiEEEERNS2_IS4_EEEC1B8ue170006IDnS7_EEOT_OT0_, symObjAddr: 0x9F28, symBinAddr: 0x10000B61C, symSize: 0x3C }
  - { offsetInCU: 0x1EB1A, offset: 0x1EB1A, size: 0x8, addend: 0x0, symName: __ZNSt3__114__split_bufferINS_6vectorIiNS_9allocatorIiEEEERNS2_IS4_EEE7__allocB8ue170006Ev, symObjAddr: 0x9FA4, symBinAddr: 0x10000B698, symSize: 0x28 }
  - { offsetInCU: 0x1EB40, offset: 0x1EB40, size: 0x8, addend: 0x0, symName: __ZNSt3__114__split_bufferINS_6vectorIiNS_9allocatorIiEEEERNS2_IS4_EEE9__end_capB8ue170006Ev, symObjAddr: 0x9FCC, symBinAddr: 0x10000B6C0, symSize: 0x28 }
  - { offsetInCU: 0x1EB66, offset: 0x1EB66, size: 0x8, addend: 0x0, symName: __ZNSt3__117__compressed_pairIPNS_6vectorIiNS_9allocatorIiEEEERNS2_IS4_EEEC2B8ue170006IDnS7_EEOT_OT0_, symObjAddr: 0x9FF4, symBinAddr: 0x10000B6E8, symSize: 0x48 }
  - { offsetInCU: 0x1EBBE, offset: 0x1EBBE, size: 0x8, addend: 0x0, symName: __ZNSt3__122__compressed_pair_elemIRNS_9allocatorINS_6vectorIiNS1_IiEEEEEELi1ELb0EEC2B8ue170006IS6_vEEOT_, symObjAddr: 0xA03C, symBinAddr: 0x10000B730, symSize: 0x20 }
  - { offsetInCU: 0x1EC00, offset: 0x1EC00, size: 0x8, addend: 0x0, symName: __ZNSt3__19allocatorINS_6vectorIiNS0_IiEEEEE8allocateB8ue170006Em, symObjAddr: 0xA05C, symBinAddr: 0x10000B750, symSize: 0x5C }
  - { offsetInCU: 0x1EC34, offset: 0x1EC34, size: 0x8, addend: 0x0, symName: __ZNSt3__117__compressed_pairIPNS_6vectorIiNS_9allocatorIiEEEERNS2_IS4_EEE6secondB8ue170006Ev, symObjAddr: 0xA0B8, symBinAddr: 0x10000B7AC, symSize: 0x28 }
  - { offsetInCU: 0x1EC5A, offset: 0x1EC5A, size: 0x8, addend: 0x0, symName: __ZNSt3__122__compressed_pair_elemIRNS_9allocatorINS_6vectorIiNS1_IiEEEEEELi1ELb0EE5__getB8ue170006Ev, symObjAddr: 0xA0E0, symBinAddr: 0x10000B7D4, symSize: 0x18 }
  - { offsetInCU: 0x1EC80, offset: 0x1EC80, size: 0x8, addend: 0x0, symName: __ZNSt3__117__compressed_pairIPNS_6vectorIiNS_9allocatorIiEEEERNS2_IS4_EEE5firstB8ue170006Ev, symObjAddr: 0xA0F8, symBinAddr: 0x10000B7EC, symSize: 0x24 }
  - { offsetInCU: 0x1ECB0, offset: 0x1ECB0, size: 0x8, addend: 0x0, symName: __ZNSt3__114__split_bufferINS_6vectorIiNS_9allocatorIiEEEERNS2_IS4_EEE21_ConstructTransactionC1B8ue170006EPPS4_m, symObjAddr: 0xA11C, symBinAddr: 0x10000B810, symSize: 0x3C }
  - { offsetInCU: 0x1ECF6, offset: 0x1ECF6, size: 0x8, addend: 0x0, symName: __ZNSt3__114__split_bufferINS_6vectorIiNS_9allocatorIiEEEERNS2_IS4_EEE21_ConstructTransactionD1B8ue170006Ev, symObjAddr: 0xA158, symBinAddr: 0x10000B84C, symSize: 0x2C }
  - { offsetInCU: 0x1ED20, offset: 0x1ED20, size: 0x8, addend: 0x0, symName: __ZNSt3__114__split_bufferINS_6vectorIiNS_9allocatorIiEEEERNS2_IS4_EEE21_ConstructTransactionC2B8ue170006EPPS4_m, symObjAddr: 0xA184, symBinAddr: 0x10000B878, symSize: 0x4C }
  - { offsetInCU: 0x1ED66, offset: 0x1ED66, size: 0x8, addend: 0x0, symName: __ZNSt3__114__split_bufferINS_6vectorIiNS_9allocatorIiEEEERNS2_IS4_EEE21_ConstructTransactionD2B8ue170006Ev, symObjAddr: 0xA1D0, symBinAddr: 0x10000B8C4, symSize: 0x20 }
  - { offsetInCU: 0x1ED90, offset: 0x1ED90, size: 0x8, addend: 0x0, symName: __ZNKSt3__16vectorINS0_IiNS_9allocatorIiEEEENS1_IS3_EEE17__annotate_deleteB8ue170006Ev, symObjAddr: 0xA1F0, symBinAddr: 0x10000B8E4, symSize: 0xD4 }
  - { offsetInCU: 0x1EDB6, offset: 0x1EDB6, size: 0x8, addend: 0x0, symName: __ZNSt3__116reverse_iteratorIPNS_6vectorIiNS_9allocatorIiEEEEEC1B8ue170006ES5_, symObjAddr: 0xA3F0, symBinAddr: 0x10000BAE4, symSize: 0x34 }
  - { offsetInCU: 0x1EDEE, offset: 0x1EDEE, size: 0x8, addend: 0x0, symName: __ZNKSt3__116reverse_iteratorIPNS_6vectorIiNS_9allocatorIiEEEEE4baseB8ue170006Ev, symObjAddr: 0xA424, symBinAddr: 0x10000BB18, symSize: 0x18 }
  - { offsetInCU: 0x1EE14, offset: 0x1EE14, size: 0x8, addend: 0x0, symName: __ZNKSt3__16vectorINS0_IiNS_9allocatorIiEEEENS1_IS3_EEE14__annotate_newB8ue170006Em, symObjAddr: 0xA478, symBinAddr: 0x10000BB6C, symSize: 0xC8 }
  - { offsetInCU: 0x1EE49, offset: 0x1EE49, size: 0x8, addend: 0x0, symName: __ZNKSt3__16vectorINS0_IiNS_9allocatorIiEEEENS1_IS3_EEE31__annotate_contiguous_containerB8ue170006EPKvS7_S7_S7_, symObjAddr: 0xA540, symBinAddr: 0x10000BC34, symSize: 0x20 }
  - { offsetInCU: 0x1EE9B, offset: 0x1EE9B, size: 0x8, addend: 0x0, symName: __ZNKSt3__16vectorINS0_IiNS_9allocatorIiEEEENS1_IS3_EEE4dataB8ue170006Ev, symObjAddr: 0xA560, symBinAddr: 0x10000BC54, symSize: 0x28 }
  - { offsetInCU: 0x1EEC1, offset: 0x1EEC1, size: 0x8, addend: 0x0, symName: __ZNSt3__129_AllocatorDestroyRangeReverseINS_9allocatorINS_6vectorIiNS1_IiEEEEEENS_16reverse_iteratorIPS4_EEEC1B8ue170006ERS5_RS8_SB_, symObjAddr: 0xA5D4, symBinAddr: 0x10000BCC8, symSize: 0x44 }
  - { offsetInCU: 0x1EF18, offset: 0x1EF18, size: 0x8, addend: 0x0, symName: __ZNSt3__116allocator_traitsINS_9allocatorINS_6vectorIiNS1_IiEEEEEEE9constructB8ue170006IS4_JS4_EvEEvRS5_PT_DpOT0_, symObjAddr: 0xA660, symBinAddr: 0x10000BD54, symSize: 0x34 }
  - { offsetInCU: 0x1EF6F, offset: 0x1EF6F, size: 0x8, addend: 0x0, symName: __ZNKSt3__116reverse_iteratorIPNS_6vectorIiNS_9allocatorIiEEEEEdeB8ue170006Ev, symObjAddr: 0xA6B8, symBinAddr: 0x10000BDAC, symSize: 0x28 }
  - { offsetInCU: 0x1EFA3, offset: 0x1EFA3, size: 0x8, addend: 0x0, symName: __ZNSt3__116reverse_iteratorIPNS_6vectorIiNS_9allocatorIiEEEEEppB8ue170006Ev, symObjAddr: 0xA6E0, symBinAddr: 0x10000BDD4, symSize: 0x20 }
  - { offsetInCU: 0x1EFC9, offset: 0x1EFC9, size: 0x8, addend: 0x0, symName: __ZNSt3__128__exception_guard_exceptionsINS_29_AllocatorDestroyRangeReverseINS_9allocatorINS_6vectorIiNS2_IiEEEEEENS_16reverse_iteratorIPS5_EEEEE10__completeB8ue170006Ev, symObjAddr: 0xA700, symBinAddr: 0x10000BDF4, symSize: 0x1C }
  - { offsetInCU: 0x1EFEF, offset: 0x1EFEF, size: 0x8, addend: 0x0, symName: __ZNSt3__128__exception_guard_exceptionsINS_29_AllocatorDestroyRangeReverseINS_9allocatorINS_6vectorIiNS2_IiEEEEEENS_16reverse_iteratorIPS5_EEEEED1B8ue170006Ev, symObjAddr: 0xA71C, symBinAddr: 0x10000BE10, symSize: 0x2C }
  - { offsetInCU: 0x1F019, offset: 0x1F019, size: 0x8, addend: 0x0, symName: __ZNSt3__128__exception_guard_exceptionsINS_29_AllocatorDestroyRangeReverseINS_9allocatorINS_6vectorIiNS2_IiEEEEEENS_16reverse_iteratorIPS5_EEEEEC1B8ue170006ESA_, symObjAddr: 0xA748, symBinAddr: 0x10000BE3C, symSize: 0x34 }
  - { offsetInCU: 0x1F052, offset: 0x1F052, size: 0x8, addend: 0x0, symName: __ZNSt3__128__exception_guard_exceptionsINS_29_AllocatorDestroyRangeReverseINS_9allocatorINS_6vectorIiNS2_IiEEEEEENS_16reverse_iteratorIPS5_EEEEEC2B8ue170006ESA_, symObjAddr: 0xA77C, symBinAddr: 0x10000BE70, symSize: 0x30 }
  - { offsetInCU: 0x1F08B, offset: 0x1F08B, size: 0x8, addend: 0x0, symName: __ZNSt3__129_AllocatorDestroyRangeReverseINS_9allocatorINS_6vectorIiNS1_IiEEEEEENS_16reverse_iteratorIPS4_EEEC2B8ue170006ERS5_RS8_SB_, symObjAddr: 0xA7AC, symBinAddr: 0x10000BEA0, symSize: 0x38 }
  - { offsetInCU: 0x1F0E2, offset: 0x1F0E2, size: 0x8, addend: 0x0, symName: __ZNSt3__19allocatorINS_6vectorIiNS0_IiEEEEE9constructB8ue170006IS3_JS3_EEEvPT_DpOT0_, symObjAddr: 0xA7E4, symBinAddr: 0x10000BED8, symSize: 0x30 }
  - { offsetInCU: 0x1F138, offset: 0x1F138, size: 0x8, addend: 0x0, symName: __ZNSt3__16vectorIiNS_9allocatorIiEEEC1B8ue170006EOS3_, symObjAddr: 0xA814, symBinAddr: 0x10000BF08, symSize: 0x34 }
  - { offsetInCU: 0x1F173, offset: 0x1F173, size: 0x8, addend: 0x0, symName: __ZNSt3__16vectorIiNS_9allocatorIiEEEC2B8ue170006EOS3_, symObjAddr: 0xA848, symBinAddr: 0x10000BF3C, symSize: 0xC4 }
  - { offsetInCU: 0x1F1B4, offset: 0x1F1B4, size: 0x8, addend: 0x0, symName: __ZNSt3__117__compressed_pairIPiNS_9allocatorIiEEEC1B8ue170006IDnS3_EEOT_OT0_, symObjAddr: 0xA90C, symBinAddr: 0x10000C000, symSize: 0x3C }
  - { offsetInCU: 0x1F20C, offset: 0x1F20C, size: 0x8, addend: 0x0, symName: __ZNSt3__16vectorIiNS_9allocatorIiEEE9__end_capB8ue170006Ev, symObjAddr: 0xA948, symBinAddr: 0x10000C03C, symSize: 0x28 }
  - { offsetInCU: 0x1F232, offset: 0x1F232, size: 0x8, addend: 0x0, symName: __ZNSt3__117__compressed_pairIPiNS_9allocatorIiEEEC2B8ue170006IDnS3_EEOT_OT0_, symObjAddr: 0xA970, symBinAddr: 0x10000C064, symSize: 0x44 }
  - { offsetInCU: 0x1F28A, offset: 0x1F28A, size: 0x8, addend: 0x0, symName: __ZNSt3__122__compressed_pair_elemINS_9allocatorIiEELi1ELb1EEC2B8ue170006IS2_vEEOT_, symObjAddr: 0xA9B4, symBinAddr: 0x10000C0A8, symSize: 0x18 }
  - { offsetInCU: 0x1F2CC, offset: 0x1F2CC, size: 0x8, addend: 0x0, symName: __ZNSt3__117__compressed_pairIPiNS_9allocatorIiEEE5firstB8ue170006Ev, symObjAddr: 0xA9CC, symBinAddr: 0x10000C0C0, symSize: 0x24 }
  - { offsetInCU: 0x1F2F2, offset: 0x1F2F2, size: 0x8, addend: 0x0, symName: __ZNSt3__122__compressed_pair_elemIPiLi0ELb0EE5__getB8ue170006Ev, symObjAddr: 0xA9F0, symBinAddr: 0x10000C0E4, symSize: 0x14 }
  - { offsetInCU: 0x1F31E, offset: 0x1F31E, size: 0x8, addend: 0x0, symName: __ZNSt3__119__to_address_helperINS_16reverse_iteratorIPNS_6vectorIiNS_9allocatorIiEEEEEEvE6__callB8ue170006ERKS7_, symObjAddr: 0xAA04, symBinAddr: 0x10000C0F8, symSize: 0x38 }
  - { offsetInCU: 0x1F341, offset: 0x1F341, size: 0x8, addend: 0x0, symName: __ZNKSt3__116reverse_iteratorIPNS_6vectorIiNS_9allocatorIiEEEEEptB8ue170006Ev, symObjAddr: 0xAA3C, symBinAddr: 0x10000C130, symSize: 0x24 }
  - { offsetInCU: 0x1F367, offset: 0x1F367, size: 0x8, addend: 0x0, symName: __ZNSt3__128__exception_guard_exceptionsINS_29_AllocatorDestroyRangeReverseINS_9allocatorINS_6vectorIiNS2_IiEEEEEENS_16reverse_iteratorIPS5_EEEEED2B8ue170006Ev, symObjAddr: 0xAA60, symBinAddr: 0x10000C154, symSize: 0x50 }
  - { offsetInCU: 0x1F391, offset: 0x1F391, size: 0x8, addend: 0x0, symName: __ZNKSt3__129_AllocatorDestroyRangeReverseINS_9allocatorINS_6vectorIiNS1_IiEEEEEENS_16reverse_iteratorIPS4_EEEclB8ue170006Ev, symObjAddr: 0xAAB0, symBinAddr: 0x10000C1A4, symSize: 0xB4 }
  - { offsetInCU: 0x1F3B8, offset: 0x1F3B8, size: 0x8, addend: 0x0, symName: __ZNSt3__116reverse_iteratorINS0_IPNS_6vectorIiNS_9allocatorIiEEEEEEEC1B8ue170006ES6_, symObjAddr: 0xABD4, symBinAddr: 0x10000C2C8, symSize: 0x3C }
  - { offsetInCU: 0x1F3F0, offset: 0x1F3F0, size: 0x8, addend: 0x0, symName: __ZNSt3__116allocator_traitsINS_9allocatorINS_6vectorIiNS1_IiEEEEEEE7destroyB8ue170006IS4_vEEvRS5_PT_, symObjAddr: 0xAC70, symBinAddr: 0x10000C364, symSize: 0x2C }
  - { offsetInCU: 0x1F42D, offset: 0x1F42D, size: 0x8, addend: 0x0, symName: __ZNSt3__116reverse_iteratorINS0_IPNS_6vectorIiNS_9allocatorIiEEEEEEEppB8ue170006Ev, symObjAddr: 0xACC0, symBinAddr: 0x10000C3B4, symSize: 0x30 }
  - { offsetInCU: 0x1F453, offset: 0x1F453, size: 0x8, addend: 0x0, symName: __ZNKSt3__116reverse_iteratorINS0_IPNS_6vectorIiNS_9allocatorIiEEEEEEE4baseB8ue170006Ev, symObjAddr: 0xACF0, symBinAddr: 0x10000C3E4, symSize: 0x24 }
  - { offsetInCU: 0x1F479, offset: 0x1F479, size: 0x8, addend: 0x0, symName: __ZNSt3__19allocatorINS_6vectorIiNS0_IiEEEEE7destroyB8ue170006EPS3_, symObjAddr: 0xAD14, symBinAddr: 0x10000C408, symSize: 0x28 }
  - { offsetInCU: 0x1F4B3, offset: 0x1F4B3, size: 0x8, addend: 0x0, symName: __ZNSt3__119__to_address_helperINS_16reverse_iteratorINS1_IPNS_6vectorIiNS_9allocatorIiEEEEEEEEvE6__callB8ue170006ERKS8_, symObjAddr: 0xAD3C, symBinAddr: 0x10000C430, symSize: 0x38 }
  - { offsetInCU: 0x1F4D6, offset: 0x1F4D6, size: 0x8, addend: 0x0, symName: __ZNKSt3__116reverse_iteratorINS0_IPNS_6vectorIiNS_9allocatorIiEEEEEEEptB8ue170006Ev, symObjAddr: 0xAD74, symBinAddr: 0x10000C468, symSize: 0x24 }
  - { offsetInCU: 0x1F4FC, offset: 0x1F4FC, size: 0x8, addend: 0x0, symName: __ZNKSt3__116reverse_iteratorINS0_IPNS_6vectorIiNS_9allocatorIiEEEEEEEdeB8ue170006Ev, symObjAddr: 0xAD98, symBinAddr: 0x10000C48C, symSize: 0x34 }
  - { offsetInCU: 0x1F530, offset: 0x1F530, size: 0x8, addend: 0x0, symName: __ZNSt3__116reverse_iteratorIPNS_6vectorIiNS_9allocatorIiEEEEEmmB8ue170006Ev, symObjAddr: 0xADCC, symBinAddr: 0x10000C4C0, symSize: 0x20 }
  - { offsetInCU: 0x1F556, offset: 0x1F556, size: 0x8, addend: 0x0, symName: __ZNSt3__116reverse_iteratorINS0_IPNS_6vectorIiNS_9allocatorIiEEEEEEEC2B8ue170006ES6_, symObjAddr: 0xADEC, symBinAddr: 0x10000C4E0, symSize: 0x2C }
  - { offsetInCU: 0x1F58E, offset: 0x1F58E, size: 0x8, addend: 0x0, symName: __ZNSt3__116reverse_iteratorIPNS_6vectorIiNS_9allocatorIiEEEEEC2B8ue170006ES5_, symObjAddr: 0xAE18, symBinAddr: 0x10000C50C, symSize: 0x28 }
  - { offsetInCU: 0x1F5C6, offset: 0x1F5C6, size: 0x8, addend: 0x0, symName: __ZNSt3__114__split_bufferINS_6vectorIiNS_9allocatorIiEEEERNS2_IS4_EEED2Ev, symObjAddr: 0xAE40, symBinAddr: 0x10000C534, symSize: 0x8C }
  - { offsetInCU: 0x1F5F2, offset: 0x1F5F2, size: 0x8, addend: 0x0, symName: __ZNSt3__114__split_bufferINS_6vectorIiNS_9allocatorIiEEEERNS2_IS4_EEE5clearB8ue170006Ev, symObjAddr: 0xAECC, symBinAddr: 0x10000C5C0, symSize: 0x28 }
  - { offsetInCU: 0x1F618, offset: 0x1F618, size: 0x8, addend: 0x0, symName: __ZNSt3__116allocator_traitsINS_9allocatorINS_6vectorIiNS1_IiEEEEEEE10deallocateB8ue170006ERS5_PS4_m, symObjAddr: 0xAEF4, symBinAddr: 0x10000C5E8, symSize: 0x34 }
  - { offsetInCU: 0x1F65A, offset: 0x1F65A, size: 0x8, addend: 0x0, symName: __ZNKSt3__114__split_bufferINS_6vectorIiNS_9allocatorIiEEEERNS2_IS4_EEE8capacityB8ue170006Ev, symObjAddr: 0xAF28, symBinAddr: 0x10000C61C, symSize: 0x40 }
  - { offsetInCU: 0x1F680, offset: 0x1F680, size: 0x8, addend: 0x0, symName: __ZNSt3__114__split_bufferINS_6vectorIiNS_9allocatorIiEEEERNS2_IS4_EEE17__destruct_at_endB8ue170006EPS4_, symObjAddr: 0xAF68, symBinAddr: 0x10000C65C, symSize: 0x2C }
  - { offsetInCU: 0x1F6B4, offset: 0x1F6B4, size: 0x8, addend: 0x0, symName: __ZNSt3__114__split_bufferINS_6vectorIiNS_9allocatorIiEEEERNS2_IS4_EEE17__destruct_at_endB8ue170006EPS4_NS_17integral_constantIbLb0EEE, symObjAddr: 0xAF94, symBinAddr: 0x10000C688, symSize: 0x80 }
  - { offsetInCU: 0x1F6F5, offset: 0x1F6F5, size: 0x8, addend: 0x0, symName: __ZNSt3__19allocatorINS_6vectorIiNS0_IiEEEEE10deallocateB8ue170006EPS3_m, symObjAddr: 0xB014, symBinAddr: 0x10000C708, symSize: 0x44 }
  - { offsetInCU: 0x1F737, offset: 0x1F737, size: 0x8, addend: 0x0, symName: __ZNKSt3__114__split_bufferINS_6vectorIiNS_9allocatorIiEEEERNS2_IS4_EEE9__end_capB8ue170006Ev, symObjAddr: 0xB058, symBinAddr: 0x10000C74C, symSize: 0x28 }
  - { offsetInCU: 0x1F75D, offset: 0x1F75D, size: 0x8, addend: 0x0, symName: __ZNKSt3__117__compressed_pairIPNS_6vectorIiNS_9allocatorIiEEEERNS2_IS4_EEE5firstB8ue170006Ev, symObjAddr: 0xB080, symBinAddr: 0x10000C774, symSize: 0x24 }
  - { offsetInCU: 0x1F783, offset: 0x1F783, size: 0x8, addend: 0x0, symName: __ZNSt3__16vectorINS0_IiNS_9allocatorIiEEEENS1_IS3_EEE22__base_destruct_at_endB8ue170006EPS3_, symObjAddr: 0xB0A4, symBinAddr: 0x10000C798, symSize: 0x8C }
  - { offsetInCU: 0x1F7C7, offset: 0x1F7C7, size: 0x8, addend: 0x0, symName: __ZNKSt3__16vectorINS0_IiNS_9allocatorIiEEEENS1_IS3_EEE17__annotate_shrinkB8ue170006Em, symObjAddr: 0xB130, symBinAddr: 0x10000C824, symSize: 0xD0 }
  - { offsetInCU: 0x1F7FC, offset: 0x1F7FC, size: 0x8, addend: 0x0, symName: __ZNKSt3__16vectorINS0_IiNS_9allocatorIiEEEENS1_IS3_EEE20__throw_out_of_rangeB8ue170006Ev, symObjAddr: 0xB200, symBinAddr: 0x10000C8F4, symSize: 0x1C }
  - { offsetInCU: 0x1F822, offset: 0x1F822, size: 0x8, addend: 0x0, symName: __ZNSt12out_of_rangeC1B8ue170006EPKc, symObjAddr: 0xB280, symBinAddr: 0x10000C974, symSize: 0x34 }
  - { offsetInCU: 0x1F85A, offset: 0x1F85A, size: 0x8, addend: 0x0, symName: __ZNSt12out_of_rangeC2B8ue170006EPKc, symObjAddr: 0xB2B4, symBinAddr: 0x10000C9A8, symSize: 0x4C }
  - { offsetInCU: 0x1F892, offset: 0x1F892, size: 0x8, addend: 0x0, symName: __ZNSt3__16vectorIiNS_9allocatorIiEEE8__appendEm, symObjAddr: 0xB300, symBinAddr: 0x10000C9F4, symSize: 0x108 }
  - { offsetInCU: 0x1F8ED, offset: 0x1F8ED, size: 0x8, addend: 0x0, symName: __ZNSt3__16vectorIiNS_9allocatorIiEEE17__destruct_at_endB8ue170006EPi, symObjAddr: 0xB408, symBinAddr: 0x10000CAFC, symSize: 0x4C }
  - { offsetInCU: 0x1F931, offset: 0x1F931, size: 0x8, addend: 0x0, symName: __ZNSt3__16vectorIiNS_9allocatorIiEEE18__construct_at_endEm, symObjAddr: 0xB454, symBinAddr: 0x10000CB48, symSize: 0xC8 }
  - { offsetInCU: 0x1F9A3, offset: 0x1F9A3, size: 0x8, addend: 0x0, symName: __ZNKSt3__16vectorIiNS_9allocatorIiEEE11__recommendB8ue170006Em, symObjAddr: 0xB51C, symBinAddr: 0x10000CC10, symSize: 0xB4 }
  - { offsetInCU: 0x1F9F8, offset: 0x1F9F8, size: 0x8, addend: 0x0, symName: __ZNSt3__114__split_bufferIiRNS_9allocatorIiEEEC1EmmS3_, symObjAddr: 0xB5D0, symBinAddr: 0x10000CCC4, symSize: 0x44 }
  - { offsetInCU: 0x1FA4E, offset: 0x1FA4E, size: 0x8, addend: 0x0, symName: __ZNSt3__114__split_bufferIiRNS_9allocatorIiEEE18__construct_at_endEm, symObjAddr: 0xB614, symBinAddr: 0x10000CD08, symSize: 0xB4 }
  - { offsetInCU: 0x1FA93, offset: 0x1FA93, size: 0x8, addend: 0x0, symName: __ZNSt3__114__split_bufferIiRNS_9allocatorIiEEED1Ev, symObjAddr: 0xB7D8, symBinAddr: 0x10000CECC, symSize: 0x2C }
  - { offsetInCU: 0x1FADA, offset: 0x1FADA, size: 0x8, addend: 0x0, symName: __ZNSt3__16vectorIiNS_9allocatorIiEEE21_ConstructTransactionC1B8ue170006ERS3_m, symObjAddr: 0xB804, symBinAddr: 0x10000CEF8, symSize: 0x3C }
  - { offsetInCU: 0x1FB22, offset: 0x1FB22, size: 0x8, addend: 0x0, symName: __ZNSt3__116allocator_traitsINS_9allocatorIiEEE9constructB8ue170006IiJEvEEvRS2_PT_DpOT0_, symObjAddr: 0xB840, symBinAddr: 0x10000CF34, symSize: 0x2C }
  - { offsetInCU: 0x1FB64, offset: 0x1FB64, size: 0x8, addend: 0x0, symName: __ZNSt3__16vectorIiNS_9allocatorIiEEE21_ConstructTransactionD1B8ue170006Ev, symObjAddr: 0xB86C, symBinAddr: 0x10000CF60, symSize: 0x2C }
  - { offsetInCU: 0x1FB8E, offset: 0x1FB8E, size: 0x8, addend: 0x0, symName: __ZNSt3__16vectorIiNS_9allocatorIiEEE21_ConstructTransactionC2B8ue170006ERS3_m, symObjAddr: 0xB898, symBinAddr: 0x10000CF8C, symSize: 0x44 }
  - { offsetInCU: 0x1FBD6, offset: 0x1FBD6, size: 0x8, addend: 0x0, symName: __ZNSt3__19allocatorIiE9constructB8ue170006IiJEEEvPT_DpOT0_, symObjAddr: 0xB8DC, symBinAddr: 0x10000CFD0, symSize: 0x1C }
  - { offsetInCU: 0x1FC18, offset: 0x1FC18, size: 0x8, addend: 0x0, symName: __ZNSt3__16vectorIiNS_9allocatorIiEEE21_ConstructTransactionD2B8ue170006Ev, symObjAddr: 0xB8F8, symBinAddr: 0x10000CFEC, symSize: 0x20 }
  - { offsetInCU: 0x1FC42, offset: 0x1FC42, size: 0x8, addend: 0x0, symName: __ZNKSt3__16vectorIiNS_9allocatorIiEEE8max_sizeEv, symObjAddr: 0xB918, symBinAddr: 0x10000D00C, symSize: 0x60 }
  - { offsetInCU: 0x1FC6A, offset: 0x1FC6A, size: 0x8, addend: 0x0, symName: __ZNKSt3__16vectorIiNS_9allocatorIiEEE20__throw_length_errorB8ue170006Ev, symObjAddr: 0xB978, symBinAddr: 0x10000D06C, symSize: 0x1C }
  - { offsetInCU: 0x1FC9B, offset: 0x1FC9B, size: 0x8, addend: 0x0, symName: __ZNSt3__116allocator_traitsINS_9allocatorIiEEE8max_sizeB8ue170006IS2_vEEmRKS2_, symObjAddr: 0xB994, symBinAddr: 0x10000D088, symSize: 0x24 }
  - { offsetInCU: 0x1FCC9, offset: 0x1FCC9, size: 0x8, addend: 0x0, symName: __ZNKSt3__16vectorIiNS_9allocatorIiEEE7__allocB8ue170006Ev, symObjAddr: 0xB9B8, symBinAddr: 0x10000D0AC, symSize: 0x28 }
  - { offsetInCU: 0x1FCEF, offset: 0x1FCEF, size: 0x8, addend: 0x0, symName: __ZNKSt3__19allocatorIiE8max_sizeB8ue170006Ev, symObjAddr: 0xB9E0, symBinAddr: 0x10000D0D4, symSize: 0x14 }
  - { offsetInCU: 0x1FD15, offset: 0x1FD15, size: 0x8, addend: 0x0, symName: __ZNKSt3__117__compressed_pairIPiNS_9allocatorIiEEE6secondB8ue170006Ev, symObjAddr: 0xB9F4, symBinAddr: 0x10000D0E8, symSize: 0x24 }
  - { offsetInCU: 0x1FD3B, offset: 0x1FD3B, size: 0x8, addend: 0x0, symName: __ZNKSt3__122__compressed_pair_elemINS_9allocatorIiEELi1ELb1EE5__getB8ue170006Ev, symObjAddr: 0xBA18, symBinAddr: 0x10000D10C, symSize: 0x14 }
  - { offsetInCU: 0x1FD61, offset: 0x1FD61, size: 0x8, addend: 0x0, symName: __ZNSt3__114__split_bufferIiRNS_9allocatorIiEEEC2EmmS3_, symObjAddr: 0xBA2C, symBinAddr: 0x10000D120, symSize: 0xD4 }
  - { offsetInCU: 0x1FDD4, offset: 0x1FDD4, size: 0x8, addend: 0x0, symName: __ZNSt3__117__compressed_pairIPiRNS_9allocatorIiEEEC1B8ue170006IDnS4_EEOT_OT0_, symObjAddr: 0xBB00, symBinAddr: 0x10000D1F4, symSize: 0x3C }
  - { offsetInCU: 0x1FE2C, offset: 0x1FE2C, size: 0x8, addend: 0x0, symName: __ZNSt3__114__split_bufferIiRNS_9allocatorIiEEE7__allocB8ue170006Ev, symObjAddr: 0xBB7C, symBinAddr: 0x10000D270, symSize: 0x28 }
  - { offsetInCU: 0x1FE52, offset: 0x1FE52, size: 0x8, addend: 0x0, symName: __ZNSt3__114__split_bufferIiRNS_9allocatorIiEEE9__end_capB8ue170006Ev, symObjAddr: 0xBBA4, symBinAddr: 0x10000D298, symSize: 0x28 }
  - { offsetInCU: 0x1FE78, offset: 0x1FE78, size: 0x8, addend: 0x0, symName: __ZNSt3__117__compressed_pairIPiRNS_9allocatorIiEEEC2B8ue170006IDnS4_EEOT_OT0_, symObjAddr: 0xBBCC, symBinAddr: 0x10000D2C0, symSize: 0x48 }
  - { offsetInCU: 0x1FED0, offset: 0x1FED0, size: 0x8, addend: 0x0, symName: __ZNSt3__122__compressed_pair_elemIRNS_9allocatorIiEELi1ELb0EEC2B8ue170006IS3_vEEOT_, symObjAddr: 0xBC14, symBinAddr: 0x10000D308, symSize: 0x20 }
  - { offsetInCU: 0x1FF12, offset: 0x1FF12, size: 0x8, addend: 0x0, symName: __ZNSt3__19allocatorIiE8allocateB8ue170006Em, symObjAddr: 0xBC34, symBinAddr: 0x10000D328, symSize: 0x58 }
  - { offsetInCU: 0x1FF46, offset: 0x1FF46, size: 0x8, addend: 0x0, symName: __ZNSt3__117__compressed_pairIPiRNS_9allocatorIiEEE6secondB8ue170006Ev, symObjAddr: 0xBC8C, symBinAddr: 0x10000D380, symSize: 0x28 }
  - { offsetInCU: 0x1FF6C, offset: 0x1FF6C, size: 0x8, addend: 0x0, symName: __ZNSt3__122__compressed_pair_elemIRNS_9allocatorIiEELi1ELb0EE5__getB8ue170006Ev, symObjAddr: 0xBCB4, symBinAddr: 0x10000D3A8, symSize: 0x18 }
  - { offsetInCU: 0x1FF92, offset: 0x1FF92, size: 0x8, addend: 0x0, symName: __ZNSt3__117__compressed_pairIPiRNS_9allocatorIiEEE5firstB8ue170006Ev, symObjAddr: 0xBCCC, symBinAddr: 0x10000D3C0, symSize: 0x24 }
  - { offsetInCU: 0x1FFC2, offset: 0x1FFC2, size: 0x8, addend: 0x0, symName: __ZNSt3__114__split_bufferIiRNS_9allocatorIiEEE21_ConstructTransactionC1B8ue170006EPPim, symObjAddr: 0xBCF0, symBinAddr: 0x10000D3E4, symSize: 0x3C }
  - { offsetInCU: 0x20008, offset: 0x20008, size: 0x8, addend: 0x0, symName: __ZNSt3__114__split_bufferIiRNS_9allocatorIiEEE21_ConstructTransactionD1B8ue170006Ev, symObjAddr: 0xBD2C, symBinAddr: 0x10000D420, symSize: 0x2C }
  - { offsetInCU: 0x20032, offset: 0x20032, size: 0x8, addend: 0x0, symName: __ZNSt3__114__split_bufferIiRNS_9allocatorIiEEE21_ConstructTransactionC2B8ue170006EPPim, symObjAddr: 0xBD58, symBinAddr: 0x10000D44C, symSize: 0x44 }
  - { offsetInCU: 0x20078, offset: 0x20078, size: 0x8, addend: 0x0, symName: __ZNSt3__114__split_bufferIiRNS_9allocatorIiEEE21_ConstructTransactionD2B8ue170006Ev, symObjAddr: 0xBD9C, symBinAddr: 0x10000D490, symSize: 0x20 }
  - { offsetInCU: 0x200A2, offset: 0x200A2, size: 0x8, addend: 0x0, symName: __ZNSt3__116reverse_iteratorIPiEC1B8ue170006ES1_, symObjAddr: 0xBE34, symBinAddr: 0x10000D528, symSize: 0x34 }
  - { offsetInCU: 0x200DA, offset: 0x200DA, size: 0x8, addend: 0x0, symName: __ZNKSt3__116reverse_iteratorIPiE4baseB8ue170006Ev, symObjAddr: 0xBE68, symBinAddr: 0x10000D55C, symSize: 0x18 }
  - { offsetInCU: 0x20100, offset: 0x20100, size: 0x8, addend: 0x0, symName: __ZNKSt3__16vectorIiNS_9allocatorIiEEE14__annotate_newB8ue170006Em, symObjAddr: 0xBEBC, symBinAddr: 0x10000D5B0, symSize: 0xAC }
  - { offsetInCU: 0x2015B, offset: 0x2015B, size: 0x8, addend: 0x0, symName: __ZNKSt3__111__move_loopINS_17_ClassicAlgPolicyEEclB8ue170006INS_16reverse_iteratorIPiEES6_S6_EENS_4pairIT_T1_EES8_T0_S9_, symObjAddr: 0xC258, symBinAddr: 0x10000D94C, symSize: 0xA0 }
  - { offsetInCU: 0x201C6, offset: 0x201C6, size: 0x8, addend: 0x0, symName: __ZNSt3__18_IterOpsINS_17_ClassicAlgPolicyEE11__iter_moveB8ue170006IRNS_16reverse_iteratorIPiEEEENS_9enable_ifIXsr12is_referenceIDTdeclsr3stdE7declvalIRT_EEEEE5valueEDTclsr3stdE4movedeclsr3stdE7declvalISA_EEEEE4typeEOS9_, symObjAddr: 0xC48C, symBinAddr: 0x10000DB80, symSize: 0x28 }
  - { offsetInCU: 0x201F2, offset: 0x201F2, size: 0x8, addend: 0x0, symName: __ZNKSt3__116reverse_iteratorIPiEdeB8ue170006Ev, symObjAddr: 0xC4B4, symBinAddr: 0x10000DBA8, symSize: 0x28 }
  - { offsetInCU: 0x20226, offset: 0x20226, size: 0x8, addend: 0x0, symName: __ZNSt3__116reverse_iteratorIPiEppB8ue170006Ev, symObjAddr: 0xC4DC, symBinAddr: 0x10000DBD0, symSize: 0x20 }
  - { offsetInCU: 0x2024C, offset: 0x2024C, size: 0x8, addend: 0x0, symName: __ZNSt3__18_IterOpsINS_17_ClassicAlgPolicyEE25__validate_iter_referenceB8ue170006IRNS_16reverse_iteratorIPiEEEEvv, symObjAddr: 0xC4FC, symBinAddr: 0x10000DBF0, symSize: 0x4 }
  - { offsetInCU: 0x2026A, offset: 0x2026A, size: 0x8, addend: 0x0, symName: __ZNSt3__118__unwrap_iter_implINS_16reverse_iteratorIPiEELb0EE8__unwrapB8ue170006ES3_, symObjAddr: 0xC500, symBinAddr: 0x10000DBF4, symSize: 0x24 }
  - { offsetInCU: 0x20293, offset: 0x20293, size: 0x8, addend: 0x0, symName: __ZNSt3__14pairINS_16reverse_iteratorIPiEES3_EC1B8ue170006IS3_S3_LPv0EEEOT_OT0_, symObjAddr: 0xC524, symBinAddr: 0x10000DC18, symSize: 0x3C }
  - { offsetInCU: 0x202F1, offset: 0x202F1, size: 0x8, addend: 0x0, symName: __ZNSt3__14pairINS_16reverse_iteratorIPiEES3_EC2B8ue170006IS3_S3_LPv0EEEOT_OT0_, symObjAddr: 0xC560, symBinAddr: 0x10000DC54, symSize: 0x34 }
  - { offsetInCU: 0x2034F, offset: 0x2034F, size: 0x8, addend: 0x0, symName: __ZNSt3__118__unwrap_iter_implINS_16reverse_iteratorIPiEELb0EE8__rewrapB8ue170006ES3_S3_, symObjAddr: 0xC594, symBinAddr: 0x10000DC88, symSize: 0x2C }
  - { offsetInCU: 0x2037D, offset: 0x2037D, size: 0x8, addend: 0x0, symName: __ZNSt3__116reverse_iteratorIPiEC2B8ue170006ES1_, symObjAddr: 0xC5C0, symBinAddr: 0x10000DCB4, symSize: 0x28 }
  - { offsetInCU: 0x203B5, offset: 0x203B5, size: 0x8, addend: 0x0, symName: __ZNSt3__114__split_bufferIiRNS_9allocatorIiEEED2Ev, symObjAddr: 0xC5E8, symBinAddr: 0x10000DCDC, symSize: 0x8C }
  - { offsetInCU: 0x203E1, offset: 0x203E1, size: 0x8, addend: 0x0, symName: __ZNSt3__114__split_bufferIiRNS_9allocatorIiEEE5clearB8ue170006Ev, symObjAddr: 0xC674, symBinAddr: 0x10000DD68, symSize: 0x28 }
  - { offsetInCU: 0x20407, offset: 0x20407, size: 0x8, addend: 0x0, symName: __ZNKSt3__114__split_bufferIiRNS_9allocatorIiEEE8capacityB8ue170006Ev, symObjAddr: 0xC69C, symBinAddr: 0x10000DD90, symSize: 0x40 }
  - { offsetInCU: 0x2042D, offset: 0x2042D, size: 0x8, addend: 0x0, symName: __ZNSt3__114__split_bufferIiRNS_9allocatorIiEEE17__destruct_at_endB8ue170006EPi, symObjAddr: 0xC6DC, symBinAddr: 0x10000DDD0, symSize: 0x2C }
  - { offsetInCU: 0x20461, offset: 0x20461, size: 0x8, addend: 0x0, symName: __ZNSt3__114__split_bufferIiRNS_9allocatorIiEEE17__destruct_at_endB8ue170006EPiNS_17integral_constantIbLb0EEE, symObjAddr: 0xC708, symBinAddr: 0x10000DDFC, symSize: 0x80 }
  - { offsetInCU: 0x204A2, offset: 0x204A2, size: 0x8, addend: 0x0, symName: __ZNKSt3__114__split_bufferIiRNS_9allocatorIiEEE9__end_capB8ue170006Ev, symObjAddr: 0xC788, symBinAddr: 0x10000DE7C, symSize: 0x28 }
  - { offsetInCU: 0x204C8, offset: 0x204C8, size: 0x8, addend: 0x0, symName: __ZNKSt3__117__compressed_pairIPiRNS_9allocatorIiEEE5firstB8ue170006Ev, symObjAddr: 0xC7B0, symBinAddr: 0x10000DEA4, symSize: 0x24 }
  - { offsetInCU: 0x204EE, offset: 0x204EE, size: 0x8, addend: 0x0, symName: __ZNKSt3__16vectorIiNS_9allocatorIiEEE17__annotate_shrinkB8ue170006Em, symObjAddr: 0xC7D4, symBinAddr: 0x10000DEC8, symSize: 0xB4 }
  - { offsetInCU: 0x20523, offset: 0x20523, size: 0x8, addend: 0x0, symName: __ZNKSt3__16vectorINS_4listIN5Graph4EdgeENS_9allocatorIS3_EEEENS4_IS6_EEE20__throw_out_of_rangeB8ue170006Ev, symObjAddr: 0xC888, symBinAddr: 0x10000DF7C, symSize: 0x1C }
  - { offsetInCU: 0x20549, offset: 0x20549, size: 0x8, addend: 0x0, symName: __ZNSt3__110__list_impIN5Graph4EdgeENS_9allocatorIS2_EEE5beginB8ue170006Ev, symObjAddr: 0xC8A4, symBinAddr: 0x10000DF98, symSize: 0x30 }
  - { offsetInCU: 0x2056F, offset: 0x2056F, size: 0x8, addend: 0x0, symName: __ZNSt3__115__list_iteratorIN5Graph4EdgeEPvEC1B8ue170006EPNS_16__list_node_baseIS2_S3_EE, symObjAddr: 0xC8D4, symBinAddr: 0x10000DFC8, symSize: 0x34 }
  - { offsetInCU: 0x205A8, offset: 0x205A8, size: 0x8, addend: 0x0, symName: __ZNSt3__115__list_iteratorIN5Graph4EdgeEPvEC2B8ue170006EPNS_16__list_node_baseIS2_S3_EE, symObjAddr: 0xC908, symBinAddr: 0x10000DFFC, symSize: 0x20 }
  - { offsetInCU: 0x205E1, offset: 0x205E1, size: 0x8, addend: 0x0, symName: __ZNSt3__110__list_impIN5Graph4EdgeENS_9allocatorIS2_EEE3endB8ue170006Ev, symObjAddr: 0xC958, symBinAddr: 0x10000E04C, symSize: 0x34 }
  - { offsetInCU: 0x20607, offset: 0x20607, size: 0x8, addend: 0x0, symName: __ZNSt3__114pointer_traitsIPN5Graph4EdgeEE10pointer_toB8ue170006ERS2_, symObjAddr: 0xC98C, symBinAddr: 0x10000E080, symSize: 0x14 }
  - { offsetInCU: 0x2062A, offset: 0x2062A, size: 0x8, addend: 0x0, symName: __ZNSt3__115__list_iteratorIN5Graph4EdgeEPvEppB8ue170006Ev, symObjAddr: 0xC9A0, symBinAddr: 0x10000E094, symSize: 0x20 }
  - { offsetInCU: 0x20650, offset: 0x20650, size: 0x8, addend: 0x0, symName: __ZNSt3__13mapINS_12basic_stringIcNS_11char_traitsIcEENS_9allocatorIcEEEEiNS_4lessIS6_EENS4_INS_4pairIKS6_iEEEEED2B8ue170006Ev, symObjAddr: 0xC9C0, symBinAddr: 0x10000E0B4, symSize: 0x2C }
  - { offsetInCU: 0x2067A, offset: 0x2067A, size: 0x8, addend: 0x0, symName: __ZNSt3__16__treeINS_12__value_typeINS_12basic_stringIcNS_11char_traitsIcEENS_9allocatorIcEEEEiEENS_19__map_value_compareIS7_S8_NS_4lessIS7_EELb1EEENS5_IS8_EEED1Ev, symObjAddr: 0xC9EC, symBinAddr: 0x10000E0E0, symSize: 0x2C }
  - { offsetInCU: 0x206A6, offset: 0x206A6, size: 0x8, addend: 0x0, symName: __ZNSt3__16__treeINS_12__value_typeINS_12basic_stringIcNS_11char_traitsIcEENS_9allocatorIcEEEEiEENS_19__map_value_compareIS7_S8_NS_4lessIS7_EELb1EEENS5_IS8_EEED2Ev, symObjAddr: 0xCA18, symBinAddr: 0x10000E10C, symSize: 0x38 }
  - { offsetInCU: 0x206D2, offset: 0x206D2, size: 0x8, addend: 0x0, symName: __ZNSt3__16__treeINS_12__value_typeINS_12basic_stringIcNS_11char_traitsIcEENS_9allocatorIcEEEEiEENS_19__map_value_compareIS7_S8_NS_4lessIS7_EELb1EEENS5_IS8_EEE7destroyEPNS_11__tree_nodeIS8_PvEE, symObjAddr: 0xCA50, symBinAddr: 0x10000E144, symSize: 0xA8 }
  - { offsetInCU: 0x2071E, offset: 0x2071E, size: 0x8, addend: 0x0, symName: __ZNSt3__16vectorINS_4listIN5Graph4EdgeENS_9allocatorIS3_EEEENS4_IS6_EEED2B8ue170006Ev, symObjAddr: 0xCAF8, symBinAddr: 0x10000E1EC, symSize: 0x44 }
  - { offsetInCU: 0x20748, offset: 0x20748, size: 0x8, addend: 0x0, symName: __ZNSt3__16vectorINS_4listIN5Graph4EdgeENS_9allocatorIS3_EEEENS4_IS6_EEE16__destroy_vectorC1B8ue170006ERS8_, symObjAddr: 0xCB3C, symBinAddr: 0x10000E230, symSize: 0x34 }
  - { offsetInCU: 0x20781, offset: 0x20781, size: 0x8, addend: 0x0, symName: __ZNSt3__16vectorINS_4listIN5Graph4EdgeENS_9allocatorIS3_EEEENS4_IS6_EEE16__destroy_vectorclB8ue170006Ev, symObjAddr: 0xCB70, symBinAddr: 0x10000E264, symSize: 0x90 }
  - { offsetInCU: 0x207A7, offset: 0x207A7, size: 0x8, addend: 0x0, symName: __ZNSt3__16vectorINS_4listIN5Graph4EdgeENS_9allocatorIS3_EEEENS4_IS6_EEE16__destroy_vectorC2B8ue170006ERS8_, symObjAddr: 0xCC00, symBinAddr: 0x10000E2F4, symSize: 0x20 }
  - { offsetInCU: 0x207E0, offset: 0x207E0, size: 0x8, addend: 0x0, symName: __ZNSt3__16vectorINS_4listIN5Graph4EdgeENS_9allocatorIS3_EEEENS4_IS6_EEE7__clearB8ue170006Ev, symObjAddr: 0xCC20, symBinAddr: 0x10000E314, symSize: 0x28 }
  - { offsetInCU: 0x20806, offset: 0x20806, size: 0x8, addend: 0x0, symName: __ZNSt3__16vectorINS_4listIN5Graph4EdgeENS_9allocatorIS3_EEEENS4_IS6_EEE22__base_destruct_at_endB8ue170006EPS6_, symObjAddr: 0xCC48, symBinAddr: 0x10000E33C, symSize: 0x8C }
  - { offsetInCU: 0x2084A, offset: 0x2084A, size: 0x8, addend: 0x0, symName: __ZNSt3__114basic_ifstreamIcNS_11char_traitsIcEEED2Ev, symObjAddr: 0xCCD4, symBinAddr: 0x10000E3C8, symSize: 0x64 }
  - { offsetInCU: 0x20884, offset: 0x20884, size: 0x8, addend: 0x0, symName: __ZTv0_n24_NSt3__114basic_ifstreamIcNS_11char_traitsIcEEED1Ev, symObjAddr: 0xCD38, symBinAddr: 0x10000E42C, symSize: 0x28 }
  - { offsetInCU: 0x2089B, offset: 0x2089B, size: 0x8, addend: 0x0, symName: __ZNSt3__111char_traitsIcE6lengthB8ue170006EPKc, symObjAddr: 0xCF4C, symBinAddr: 0x10000E640, symSize: 0x34 }
  - { offsetInCU: 0x208D9, offset: 0x208D9, size: 0x8, addend: 0x0, symName: __ZNKSt3__113basic_ostreamIcNS_11char_traitsIcEEE6sentrycvbB8ue170006Ev, symObjAddr: 0xCF80, symBinAddr: 0x10000E674, symSize: 0x1C }
  - { offsetInCU: 0x208FF, offset: 0x208FF, size: 0x8, addend: 0x0, symName: __ZNSt3__119ostreambuf_iteratorIcNS_11char_traitsIcEEEC1B8ue170006ERNS_13basic_ostreamIcS2_EE, symObjAddr: 0xD1DC, symBinAddr: 0x10000E8D0, symSize: 0x34 }
  - { offsetInCU: 0x20937, offset: 0x20937, size: 0x8, addend: 0x0, symName: __ZNKSt3__18ios_base5flagsB8ue170006Ev, symObjAddr: 0xD210, symBinAddr: 0x10000E904, symSize: 0x18 }
  - { offsetInCU: 0x2095F, offset: 0x2095F, size: 0x8, addend: 0x0, symName: __ZNKSt3__19basic_iosIcNS_11char_traitsIcEEE4fillB8ue170006Ev, symObjAddr: 0xD228, symBinAddr: 0x10000E91C, symSize: 0x64 }
  - { offsetInCU: 0x20987, offset: 0x20987, size: 0x8, addend: 0x0, symName: __ZNKSt3__119ostreambuf_iteratorIcNS_11char_traitsIcEEE6failedB8ue170006Ev, symObjAddr: 0xD28C, symBinAddr: 0x10000E980, symSize: 0x24 }
  - { offsetInCU: 0x209AD, offset: 0x209AD, size: 0x8, addend: 0x0, symName: __ZNSt3__115basic_streambufIcNS_11char_traitsIcEEE5sputnB8ue170006EPKcl, symObjAddr: 0xD2B0, symBinAddr: 0x10000E9A4, symSize: 0x3C }
  - { offsetInCU: 0x209EF, offset: 0x209EF, size: 0x8, addend: 0x0, symName: __ZNSt3__112basic_stringIcNS_11char_traitsIcEENS_9allocatorIcEEEC1B8ue170006Emc, symObjAddr: 0xD2EC, symBinAddr: 0x10000E9E0, symSize: 0x3C }
  - { offsetInCU: 0x20A37, offset: 0x20A37, size: 0x8, addend: 0x0, symName: __ZNSt3__112basic_stringIcNS_11char_traitsIcEENS_9allocatorIcEEEC2B8ue170006Emc, symObjAddr: 0xD328, symBinAddr: 0x10000EA1C, symSize: 0x4C }
  - { offsetInCU: 0x20A7F, offset: 0x20A7F, size: 0x8, addend: 0x0, symName: __ZNSt3__119ostreambuf_iteratorIcNS_11char_traitsIcEEEC2B8ue170006ERNS_13basic_ostreamIcS2_EE, symObjAddr: 0xD374, symBinAddr: 0x10000EA68, symSize: 0x54 }
  - { offsetInCU: 0x20AB7, offset: 0x20AB7, size: 0x8, addend: 0x0, symName: __ZNKSt3__113basic_filebufIcNS_11char_traitsIcEEE7is_openEv, symObjAddr: 0xD3EC, symBinAddr: 0x10000EAE0, symSize: 0x24 }
...
